

Microchip Technology PIC PRO Macro Assembler V1.45 build -152302408 
                                                                                               Wed Jul 01 09:43:52 2026


     1                           	processor	18m121b1
     2                           	opt	pw 120
     3                           	opt	pm
     4                           	psect	idataBANK1,global,class=CODE,delta=2
     5                           	psect	strings,global,class=STRING,delta=2
     6                           	psect	cinit,global,class=CODE,merge=1,delta=2
     7                           	psect	bitbssBANK0,global,bit,class=BANK0,space=1,delta=1
     8                           	psect	bssBANK0,global,class=BANK0,space=1,delta=1
     9                           	psect	bssBANK1,global,class=BANK1,space=1,delta=1
    10                           	psect	dataBANK1,global,class=BANK1,space=1,delta=1
    11                           	psect	cstackBANK1,global,class=BANK1,space=1,delta=1
    12                           	psect	cstackCOMMON,global,class=COMMON,space=1,delta=1
    13                           	psect	cstackBANK0,global,class=BANK0,space=1,delta=1
    14                           	psect	maintext,global,class=CODE,split=1,delta=2
    15                           	psect	text1,local,class=CODE,merge=1,delta=2
    16                           	psect	text2,local,class=CODE,merge=1,delta=2
    17                           	psect	text3,local,class=CODE,merge=1,delta=2
    18                           	psect	text4,local,class=CODE,merge=1,delta=2
    19                           	psect	text5,local,class=CODE,merge=1,delta=2
    20                           	psect	text6,local,class=CODE,merge=1,delta=2
    21                           	psect	text7,local,class=CODE,merge=1,delta=2
    22                           	psect	text8,local,class=CODE,merge=1,delta=2
    23                           	psect	text9,local,class=CODE,merge=1,delta=2
    24                           	psect	text10,local,class=CODE,merge=1,delta=2
    25                           	psect	text11,local,class=CODE,merge=1,delta=2
    26                           	psect	text12,local,class=CODE,merge=1,delta=2
    27                           	psect	text13,local,class=CODE,merge=1,delta=2
    28                           	psect	text14,local,class=CODE,merge=1,delta=2
    29                           	psect	text15,local,class=CODE,merge=1,delta=2
    30                           	psect	text16,local,class=CODE,merge=1,delta=2
    31                           	psect	text17,local,class=CODE,merge=1,delta=2
    32                           	psect	text18,local,class=CODE,merge=1,delta=2
    33                           	psect	text19,local,class=CODE,merge=1,delta=2
    34                           	psect	text20,local,class=CODE,merge=1,delta=2
    35                           	psect	text21,local,class=CODE,merge=1,delta=2
    36                           	psect	text22,local,class=CODE,merge=1,delta=2
    37                           	psect	text23,local,class=CODE,merge=1,delta=2
    38                           	psect	intentry,global,class=CODE,delta=2
    39                           	psect	text24,local,class=CODE,merge=1,delta=2
    40                           	psect	swtext1,local,class=CONST,delta=2
    41                           	psect	text25,local,class=CODE,merge=1,delta=2
    42                           	psect	pa_nodes0,global,class=CODE,delta=2
    43                           	psect	pa_nodes0,global,class=CODE,delta=2
    44                           	dabs	1,0x5B,1,_ADCON1
    45                           	dabs	1,0x5A,1,_ADCON0
    46                           	dabs	1,0x59,1,_ADRESH
    47                           	dabs	1,0x58,1,_ADRESL
    48                           	dabs	1,0x57,1,_ANSELH
    49                           	dabs	1,0x56,1,_ANSELL
    50                           	dabs	1,0x55,1,_PWMSET
    51                           	dabs	1,0x54,1,_PWM1P
    52                           	dabs	1,0x53,1,_T2LOAD
    53                           	dabs	1,0x52,1,_T2
    54                           	dabs	1,0x51,1,_TMR2H
    55                           	dabs	1,0x50,1,_T2CON
    56                           	dabs	1,0x4F,1,_PWM0P
    57                           	dabs	1,0x4E,1,_T1LOAD
    58                           	dabs	1,0x4D,1,_T1
    59                           	dabs	1,0x4C,1,_T1CON
    60                           	dabs	1,0x4B,1,_T1CR_AUXR
    61                           	dabs	1,0x4A,1,_PMDATH
    62                           	dabs	1,0x49,1,_PMDATL
    63                           	dabs	1,0x48,1,_PMADRH
    64                           	dabs	1,0x47,1,_PMADRL
    65                           	dabs	1,0x46,1,_TRISB
    66                           	dabs	1,0x45,1,_TRISA
    67                           	dabs	1,0x43,1,_PHCON1
    68                           	dabs	1,0x42,1,_PDCON1
    69                           	dabs	1,0x41,1,_OPTION
    70                           	dabs	1,0x40,1,_PMCON
    71                           	dabs	1,0x2DE,0,_ADCS2
    72                           	dabs	1,0x5B,1
    73                           	dabs	1,0x2DD,0,_ADCS1
    74                           	dabs	1,0x5B,1
    75                           	dabs	1,0x2DC,0,_ADCS0
    76                           	dabs	1,0x5B,1
    77                           	dabs	1,0x2DB,0,_VHS2
    78                           	dabs	1,0x5B,1
    79                           	dabs	1,0x2DA,0,_VHS1
    80                           	dabs	1,0x5B,1
    81                           	dabs	1,0x2D9,0,_VHS0
    82                           	dabs	1,0x5B,1
    83                           	dabs	1,0x2D8,0,_ADREF
    84                           	dabs	1,0x5B,1
    85                           	dabs	1,0x2D5,0,_CHS3
    86                           	dabs	1,0x5A,1
    87                           	dabs	1,0x2D4,0,_CHS2
    88                           	dabs	1,0x5A,1
    89                           	dabs	1,0x2D3,0,_CHS1
    90                           	dabs	1,0x5A,1
    91                           	dabs	1,0x2D2,0,_CHS0
    92                           	dabs	1,0x5A,1
    93                           	dabs	1,0x2D1,0,_ADON
    94                           	dabs	1,0x5A,1
    95                           	dabs	1,0x2D0,0,_ADEN
    96                           	dabs	1,0x5A,1
    97                           	dabs	1,0x2BF,0,_ANSEL15
    98                           	dabs	1,0x57,1
    99                           	dabs	1,0x2BE,0,_ANSEL14
   100                           	dabs	1,0x57,1
   101                           	dabs	1,0x2BB,0,_ANSEL11
   102                           	dabs	1,0x57,1
   103                           	dabs	1,0x2BA,0,_ANSEL10
   104                           	dabs	1,0x57,1
   105                           	dabs	1,0x2B9,0,_ANSEL9
   106                           	dabs	1,0x57,1
   107                           	dabs	1,0x2B8,0,_ANSEL8
   108                           	dabs	1,0x57,1
   109                           	dabs	1,0x2B7,0,_ANSEL7
   110                           	dabs	1,0x56,1
   111                           	dabs	1,0x2B6,0,_ANSEL6
   112                           	dabs	1,0x56,1
   113                           	dabs	1,0x2B5,0,_ANSEL5
   114                           	dabs	1,0x56,1
   115                           	dabs	1,0x2B4,0,_ANSEL4
   116                           	dabs	1,0x56,1
   117                           	dabs	1,0x2B3,0,_ANSEL3
   118                           	dabs	1,0x56,1
   119                           	dabs	1,0x2B2,0,_ANSEL2
   120                           	dabs	1,0x56,1
   121                           	dabs	1,0x2B1,0,_ANSEL1
   122                           	dabs	1,0x56,1
   123                           	dabs	1,0x2B0,0,_ANSEL0
   124                           	dabs	1,0x56,1
   125                           	dabs	1,0x2A8,0,_PWMM
   126                           	dabs	1,0x55,1
   127                           	dabs	1,0x28F,0,_PWMS1
   128                           	dabs	1,0x51,1
   129                           	dabs	1,0x28E,0,_PWMS0
   130                           	dabs	1,0x51,1
   131                           	dabs	1,0x28D,0,_TIMER2_9
   132                           	dabs	1,0x51,1
   133                           	dabs	1,0x28C,0,_TIMER2_8
   134                           	dabs	1,0x51,1
   135                           	dabs	1,0x28B,0,_T2LOAD_9
   136                           	dabs	1,0x51,1
   137                           	dabs	1,0x28A,0,_T2LOAD_8
   138                           	dabs	1,0x51,1
   139                           	dabs	1,0x289,0,_PWM1_9
   140                           	dabs	1,0x51,1
   141                           	dabs	1,0x288,0,_PWM1_8
   142                           	dabs	1,0x51,1
   143                           	dabs	1,0x287,0,_T2EN
   144                           	dabs	1,0x50,1
   145                           	dabs	1,0x286,0,_PWM1E
   146                           	dabs	1,0x50,1
   147                           	dabs	1,0x285,0,_SCS
   148                           	dabs	1,0x50,1
   149                           	dabs	1,0x284,0,_T2CK1
   150                           	dabs	1,0x50,1
   151                           	dabs	1,0x283,0,_T2CK0
   152                           	dabs	1,0x50,1
   153                           	dabs	1,0x282,0,_T2PR2
   154                           	dabs	1,0x50,1
   155                           	dabs	1,0x281,0,_T2PR1
   156                           	dabs	1,0x50,1
   157                           	dabs	1,0x280,0,_T2PR0
   158                           	dabs	1,0x50,1
   159                           	dabs	1,0x267,0,_T1EN
   160                           	dabs	1,0x4C,1
   161                           	dabs	1,0x266,0,_PWM0E
   162                           	dabs	1,0x4C,1
   163                           	dabs	1,0x265,0,_T0OSCEN
   164                           	dabs	1,0x4C,1
   165                           	dabs	1,0x264,0,_T1CK1
   166                           	dabs	1,0x4C,1
   167                           	dabs	1,0x263,0,_T1CK0
   168                           	dabs	1,0x4C,1
   169                           	dabs	1,0x262,0,_T1PR2
   170                           	dabs	1,0x4C,1
   171                           	dabs	1,0x261,0,_T1PR1
   172                           	dabs	1,0x4C,1
   173                           	dabs	1,0x260,0,_T1PR0
   174                           	dabs	1,0x4C,1
   175                           	dabs	1,0x25F,0,_T0CK
   176                           	dabs	1,0x4B,1
   177                           	dabs	1,0x25E,0,_T2IE
   178                           	dabs	1,0x4B,1
   179                           	dabs	1,0x25D,0,_T2IF
   180                           	dabs	1,0x4B,1
   181                           	dabs	1,0x25C,0,_POR
   182                           	dabs	1,0x4B,1
   183                           	dabs	1,0x25B,0,_BOR
   184                           	dabs	1,0x4B,1
   185                           	dabs	1,0x25A,0,_BOREN
   186                           	dabs	1,0x4B,1
   187                           	dabs	1,0x259,0,_T1IE
   188                           	dabs	1,0x4B,1
   189                           	dabs	1,0x258,0,_T1IF
   190                           	dabs	1,0x4B,1
   191                           	dabs	1,0x237,0,_TRISB7
   192                           	dabs	1,0x46,1
   193                           	dabs	1,0x236,0,_TRISB6
   194                           	dabs	1,0x46,1
   195                           	dabs	1,0x235,0,_TRISB5
   196                           	dabs	1,0x46,1
   197                           	dabs	1,0x234,0,_TRISB4
   198                           	dabs	1,0x46,1
   199                           	dabs	1,0x233,0,_TRISB3
   200                           	dabs	1,0x46,1
   201                           	dabs	1,0x232,0,_TRISB2
   202                           	dabs	1,0x46,1
   203                           	dabs	1,0x231,0,_TRISB1
   204                           	dabs	1,0x46,1
   205                           	dabs	1,0x230,0,_TRISB0
   206                           	dabs	1,0x46,1
   207                           	dabs	1,0x22F,0,_TRISA7
   208                           	dabs	1,0x45,1
   209                           	dabs	1,0x22E,0,_TRISA6
   210                           	dabs	1,0x45,1
   211                           	dabs	1,0x22D,0,_TRISA5
   212                           	dabs	1,0x45,1
   213                           	dabs	1,0x22C,0,_TRISA4
   214                           	dabs	1,0x45,1
   215                           	dabs	1,0x22B,0,_TRISA3
   216                           	dabs	1,0x45,1
   217                           	dabs	1,0x22A,0,_TRISA2
   218                           	dabs	1,0x45,1
   219                           	dabs	1,0x229,0,_TRISA1
   220                           	dabs	1,0x45,1
   221                           	dabs	1,0x228,0,_TRISA0
   222                           	dabs	1,0x45,1
   223                           	dabs	1,0x21F,0,_PHA7
   224                           	dabs	1,0x43,1
   225                           	dabs	1,0x21E,0,_PHA6
   226                           	dabs	1,0x43,1
   227                           	dabs	1,0x21D,0,_PHA5
   228                           	dabs	1,0x43,1
   229                           	dabs	1,0x21C,0,_PHA4
   230                           	dabs	1,0x43,1
   231                           	dabs	1,0x21B,0,_PHA3
   232                           	dabs	1,0x43,1
   233                           	dabs	1,0x21A,0,_PHA2
   234                           	dabs	1,0x43,1
   235                           	dabs	1,0x219,0,_PHA1
   236                           	dabs	1,0x43,1
   237                           	dabs	1,0x218,0,_PHA0
   238                           	dabs	1,0x43,1
   239                           	dabs	1,0x217,0,_PDA7
   240                           	dabs	1,0x42,1
   241                           	dabs	1,0x216,0,_PDA6
   242                           	dabs	1,0x42,1
   243                           	dabs	1,0x215,0,_PDA5
   244                           	dabs	1,0x42,1
   245                           	dabs	1,0x214,0,_PDA4
   246                           	dabs	1,0x42,1
   247                           	dabs	1,0x213,0,_PDA3
   248                           	dabs	1,0x42,1
   249                           	dabs	1,0x212,0,_PDA2
   250                           	dabs	1,0x42,1
   251                           	dabs	1,0x211,0,_PDA1
   252                           	dabs	1,0x42,1
   253                           	dabs	1,0x210,0,_PDA0
   254                           	dabs	1,0x42,1
   255                           	dabs	1,0x20F,0,_WDTEN
   256                           	dabs	1,0x41,1
   257                           	dabs	1,0x20E,0,_INTEDG
   258                           	dabs	1,0x41,1
   259                           	dabs	1,0x20D,0,_T0CS
   260                           	dabs	1,0x41,1
   261                           	dabs	1,0x20C,0,_T0SE
   262                           	dabs	1,0x41,1
   263                           	dabs	1,0x20B,0,_PSA
   264                           	dabs	1,0x41,1
   265                           	dabs	1,0x20A,0,_PS2
   266                           	dabs	1,0x41,1
   267                           	dabs	1,0x209,0,_PS1
   268                           	dabs	1,0x41,1
   269                           	dabs	1,0x208,0,_PS0
   270                           	dabs	1,0x41,1
   271                           	dabs	1,0x201,0,_MTP_CLEN
   272                           	dabs	1,0x40,1
   273                           	dabs	1,0x200,0,_RD_FLAG
   274                           	dabs	1,0x40,1
   275                           	dabs	1,0x3E,2
   276  002D                     
   277                           	psect	idataBANK1
   278  07FA                     __pidataBANK1:	
   279                           ;
   280                           ;
   281                           ;
   282                           ;
   283                           ;
   284                           ;
   285                           ;
   286                           ;
   287                           ;
   288                           ;
   289                           ;
   290                           ;
   291                           ;
   292                           ;
   293                           ;
   294                           ;
   295                           ;
   296                           ;
   297                           ;
   298                           ;
   299                           ;
   300                           ;
   301                           ;
   302                           ;
   303                           ;
   304                           ;
   305                           ;
   306                           ;
   307                           ;
   308                           ;
   309                           ;
   310                           ;
   311                           ;
   312                           ;
   313                           ;
   314                           ;
   315                           
   316                           
   317                           ;initializer for Battery_Update@startup_cnt
   318  07FA  3432               	retlw	50
   319                           
   320                           ;initializer for LedMode_Func@breath_dir
   321  07FB  3401               	retlw	1
   322                           
   323                           	psect	strings
   324  07C9                     __pstrings:	
   325  07C9                     stringtab:	
   326  07C9                     __stringtab:	
   327  07C9                     stringcode:	
   328  07C9                     stringdir:	
   329                           ;	String table - string pointers are 1 byte each
   330                           
   331  07C9  3007               	movlw	high stringdir
   332  07CA  008A               	movwf	10
   333  07CB  0804               	movf	4,w
   334  07CC  0A84               	incf	4,f
   335  07CD  0782               	addwf	2,f
   336  07CE                     __stringbase:	
   337  07CE  3400               	retlw	0
   338  07CF                     __end_of__stringtab:	
   339  07CF                     _c_fan_duty:	
   340  07CF  3400               	retlw	0
   341  07D0  341F               	retlw	31
   342  07D1  3432               	retlw	50
   343  07D2  3444               	retlw	68
   344  07D3  3457               	retlw	87
   345  07D4  3469               	retlw	105
   346  07D5  347C               	retlw	124
   347  07D6                     __end_of_c_fan_duty:		;_RD_FLAG
   348  000F                     _PIR	set	15
   349  000E                     _INTECON	set	14
   350  000D                     _PHCON	set	13
   351  000B                     _PDCON	set	11
   352  0009                     _IOCB	set	9
   353  0007                     _IOCA	set	7
   354  0006                     _PORTB	set	6
   355  0005                     _PORTA	set	5
   356  0004                     _FSR	set	4
   357  0001                     _T0	set	1
   358  0000                     _INDF	set	0
   359  007A                     _ADIF	set	122
   360  0079                     _PAIE	set	121
   361  0078                     _PAIF	set	120
   362  0077                     _GIE	set	119
   363  0074                     _PBIF	set	116
   364  0073                     _T0IF	set	115
   365  0071                     _PBIE	set	113
   366  0070                     _T0IE	set	112
   367  0036                     _PORTB6	set	54
   368  0032                     _PORTB2	set	50
   369  0031                     _PORTB1	set	49
   370  0030                     _PORTB0	set	48
   371  002F                     _PORTA7	set	47
   372  002E                     _PORTA6	set	46
   373  002C                     _PORTA4	set	44
   374  002B                     _PORTA3	set	43
   375  002A                     _PORTA2	set	42
   376  0029                     _PORTA1	set	41
   377                           
   378                           	psect	cinit
   379  0018                     start_initialization:	
   380  0018                     __initialization:	
   381                           ; #config settings
   382                           
   383  0018                     end_of_initialization:	
   384  0018                     __end_of__initialization:	
   385                           ;End of C runtime variable initialization code
   386                           
   387  0018  0183               	clrf	3
   388  0019  2DE8               	ljmp	_main	;jump to C main() function
   389                           
   390                           	psect	bitbssBANK0
   391  01A8                     __pbitbssBANK0:	
   392  01A8                     _g_offshow_flag:	
   393  01A8                     	ds	1
   394  01A9                     _g_warn_blink:	
   395  01A9                     	ds	1
   396  01AA                     _B_KEYHX_Flag:	
   397  01AA                     	ds	1
   398  01AB                     _g_slave_chargefull:	
   399  01AB                     	ds	1
   400  01AC                     _g_slave_charging:	
   401  01AC                     	ds	1
   402  01AD                     _B_LowPower_Flag:	
   403  01AD                     	ds	1
   404  01AE                     _B_OnOff_Flag:	
   405  01AE                     	ds	1
   406                           
   407                           	psect	bssBANK0
   408  0010                     __pbssBANK0:	
   409  0010                     _g_vdd_adc:	
   410  0010                     	ds	2
   411  0012                     _g_current_pwm:	
   412  0012                     	ds	2
   413  0014                     _g_k2_hold_ms:	
   414  0014                     	ds	2
   415  0016                     _g_k1_hold_ms:	
   416  0016                     	ds	2
   417  0018                     _kcomm_timer:	
   418  0018                     	ds	2
   419  001A                     LedMode_Func@disp_level:	
   420  001A                     	ds	1
   421  001B                     LedMode_Func@breath_duty:	
   422  001B                     	ds	1
   423  001C                     LedMode_Func@chg_pwm_cnt:	
   424  001C                     	ds	1
   425  001D                     _level:	
   426  001D                     	ds	1
   427  001E                     _g_k1_prev:	
   428  001E                     	ds	1
   429  001F                     _g_warn_led:	
   430  001F                     	ds	1
   431  0020                     _g_warn_flash:	
   432  0020                     	ds	1
   433  0021                     _g_battery_empty:	
   434  0021                     	ds	1
   435  0022                     _g_gear:	
   436  0022                     	ds	1
   437  0023                     _DIY_Flag1:	
   438  0023                     	ds	1
   439  0024                     _adcon1_val:	
   440  0024                     	ds	1
   441  0025                     _kcomm_wakeup:	
   442  0025                     	ds	1
   443  0026                     _kcomm_rx_done:	
   444  0026                     	ds	1
   445  0027                     _kcomm_bit_idx:	
   446  0027                     	ds	1
   447  0028                     _kcomm_state:	
   448  0028                     	ds	1
   449                           
   450                           	psect	bssBANK1
   451  0090                     __pbssBANK1:	
   452  0090                     Battery_Update@loop_sum:	
   453  0090                     	ds	2
   454  0092                     Battery_Update@loop_max:	
   455  0092                     	ds	2
   456  0094                     Battery_Update@loop_min:	
   457  0094                     	ds	2
   458  0096                     Sleep_Func@Sleep_Time:	
   459  0096                     	ds	2
   460  0098                     _g_slave_alive_ms:	
   461  0098                     	ds	2
   462  009A                     _g_offshow_ms:	
   463  009A                     	ds	2
   464  009C                     _g_pwr_delay_ms:	
   465  009C                     	ds	2
   466  009E                     _kcomm_wakeup_cnt:	
   467  009E                     	ds	2
   468  00A0                     _kcomm_low_cnt:	
   469  00A0                     	ds	2
   470  00A2                     Timer1_Isr@pwm_cnt:	
   471  00A2                     	ds	1
   472  00A3                     Timer1_Isr@timer_ms:	
   473  00A3                     	ds	1
   474  00A4                     Kcomm_ISR@bit_wait_fall:	
   475  00A4                     	ds	1
   476  00A5                     Key_Application@off_key_prev:	
   477  00A5                     	ds	1
   478  00A6                     SW_Func@sw_time2:	
   479  00A6                     	ds	1
   480  00A7                     SW_Func@sw_time1:	
   481  00A7                     	ds	1
   482  00A8                     Key_Func@key2_time2:	
   483  00A8                     	ds	1
   484  00A9                     Key_Func@key2_time1:	
   485  00A9                     	ds	1
   486  00AA                     Key_Func@key1_time2:	
   487  00AA                     	ds	1
   488  00AB                     Key_Func@key1_time1:	
   489  00AB                     	ds	1
   490  00AC                     Battery_Update@loop_num:	
   491  00AC                     	ds	1
   492  00AD                     Battery_Update@low_clr_debounce:	
   493  00AD                     	ds	1
   494  00AE                     Battery_Update@low_debounce:	
   495  00AE                     	ds	1
   496  00AF                     LedMode_Func@lv_debounce:	
   497  00AF                     	ds	1
   498  00B0                     LedMode_Func@breath_cnt:	
   499  00B0                     	ds	1
   500  00B1                     _g_overclock_pwm:	
   501  00B1                     	ds	1
   502  00B2                     _g_warn_cnt:	
   503  00B2                     	ds	1
   504  00B3                     _g_k2_prev:	
   505  00B3                     	ds	1
   506  00B4                     _g_target_pwm:	
   507  00B4                     	ds	1
   508  00B5                     _kcomm_tx_done:	
   509  00B5                     	ds	1
   510  00B6                     _kcomm_rx_shift:	
   511  00B6                     	ds	1
   512  00B7                     _kcomm_cycle:	
   513  00B7                     	ds	1
   514  00B8                     _kcomm_turn:	
   515  00B8                     	ds	1
   516  00B9                     _kcomm_rx_buf:	
   517  00B9                     	ds	1
   518  00BA                     _kcomm_tx_shift:	
   519  00BA                     	ds	1
   520  00BB                     _kcomm_tx_buf:	
   521  00BB                     	ds	1
   522                           
   523                           	psect	dataBANK1
   524  00C8                     __pdataBANK1:	
   525  00C8                     Battery_Update@startup_cnt:	
   526  00C8                     	ds	1
   527  00C9                     LedMode_Func@breath_dir:	
   528  00C9                     	ds	1
   529                           
   530                           	psect	cstackBANK1
   531  00BC                     __pcstackBANK1:	
   532  00BC                     Comm_Process@rx_ok:	
   533  00BC                     _sysinitial$240:	
   534  00BC                     adc_read_vdd@ad_delay:	
   535                           ; 1 bytes @ 0x0
   536                           
   537                           
   538                           ; 2 bytes @ 0x0
   539                           ; 2 bytes @ 0x0
   540  00BC                     	ds	2
   541  00BE                     _sysinitial$241:	
   542  00BE                     adc_read_vdd@result:	
   543                           
   544                           ; 2 bytes @ 0x2
   545                           ; 2 bytes @ 0x2
   546  00BE                     	ds	2
   547  00C0                     _Key_Application$609:	
   548  00C0                     _sysinitial$242:	
   549                           
   550                           ; 1 bytes @ 0x4
   551                           ; 2 bytes @ 0x4
   552  00C0                     	ds	1
   553  00C1                     Key_Application@edge:	
   554                           
   555                           ; 1 bytes @ 0x5
   556  00C1                     	ds	1
   557  00C2                     Key_Application@cur:	
   558  00C2                     _sysinitial$243:	
   559                           
   560                           ; 1 bytes @ 0x6
   561                           ; 2 bytes @ 0x6
   562  00C2                     	ds	2
   563  00C4                     _sysinitial$244:	
   564                           
   565                           ; 2 bytes @ 0x8
   566  00C4                     	ds	2
   567  00C6                     _sysinitial$245:	
   568                           
   569                           ; 2 bytes @ 0xA
   570  00C6                     	ds	2
   571                           
   572                           	psect	cstackCOMMON
   573  0000                     __pcstackCOMMON:	
   574  0000                     ??_ADC_Init:	
   575  0000                     ??_show_gear_led:	
   576  0000                     ??_T1_PWM_inital:	
   577                           ; 1 bytes @ 0x0
   578                           
   579  0000                     ??_inital:	
   580                           ; 1 bytes @ 0x0
   581                           
   582  0000                     ??_sysinitial:	
   583                           ; 1 bytes @ 0x0
   584                           
   585  0000                     ??_ramInitial:	
   586                           ; 1 bytes @ 0x0
   587                           
   588  0000                     ??_Delay_Init:	
   589                           ; 1 bytes @ 0x0
   590                           
   591  0000                     ??_delay_us:	
   592                           ; 1 bytes @ 0x0
   593                           
   594  0000                     ??_Sleep_Func:	
   595                           ; 1 bytes @ 0x0
   596                           
   597  0000                     ??_adc_read_vdd:	
   598                           ; 1 bytes @ 0x0
   599                           
   600  0000                     ??_LedMode_Func:	
   601                           ; 1 bytes @ 0x0
   602                           
   603  0000                     ??_Battery_Update:	
   604                           ; 1 bytes @ 0x0
   605                           
   606  0000                     ??_set_fan:	
   607                           ; 1 bytes @ 0x0
   608                           
   609  0000                     ??_trigger_warn:	
   610                           ; 1 bytes @ 0x0
   611                           
   612  0000                     ??_warn_flash_proc:	
   613                           ; 1 bytes @ 0x0
   614                           
   615  0000                     ??_Key_Func:	
   616                           ; 1 bytes @ 0x0
   617                           
   618  0000                     ??_SW_Func:	
   619                           ; 1 bytes @ 0x0
   620                           
   621  0000                     ??_Key_Application:	
   622                           ; 1 bytes @ 0x0
   623                           
   624  0000                     ??_comm_pack_tx:	
   625                           ; 1 bytes @ 0x0
   626                           
   627  0000                     ??_comm_parse_rx:	
   628                           ; 1 bytes @ 0x0
   629                           
   630  0000                     ??_Kcomm_ISR:	
   631                           ; 1 bytes @ 0x0
   632                           
   633  0000                     ??_Comm_Process:	
   634                           ; 1 bytes @ 0x0
   635                           
   636  0000                     ??_Flag_AllClear:	
   637                           ; 1 bytes @ 0x0
   638                           
   639  0000                     ??_main:	
   640                           ; 1 bytes @ 0x0
   641                           
   642                           
   643                           	psect	cstackBANK0
   644  0029                     __pcstackBANK0:	
   645                           ; 1 bytes @ 0x0
   646                           
   647  0029                     ?_ADC_Init:	
   648                           ; 1 bytes @ 0x0
   649                           
   650  0029                     ?_show_gear_led:	
   651  0029                     ?_T1_PWM_inital:	
   652                           ; 1 bytes @ 0x0
   653                           
   654  0029                     ?_inital:	
   655                           ; 1 bytes @ 0x0
   656                           
   657  0029                     ?_sysinitial:	
   658                           ; 1 bytes @ 0x0
   659                           
   660  0029                     ?_ramInitial:	
   661                           ; 1 bytes @ 0x0
   662                           
   663  0029                     ?_Sleep_Func:	
   664                           ; 1 bytes @ 0x0
   665                           
   666  0029                     ?_LedMode_Func:	
   667                           ; 1 bytes @ 0x0
   668                           
   669  0029                     ?_Battery_Update:	
   670                           ; 1 bytes @ 0x0
   671                           
   672  0029                     ?_set_fan:	
   673                           ; 1 bytes @ 0x0
   674                           
   675  0029                     ?_fan_ramp_proc:	
   676                           ; 1 bytes @ 0x0
   677                           
   678  0029                     ?_trigger_warn:	
   679                           ; 1 bytes @ 0x0
   680                           
   681  0029                     ?_warn_flash_proc:	
   682                           ; 1 bytes @ 0x0
   683                           
   684  0029                     ?_Key_Func:	
   685                           ; 1 bytes @ 0x0
   686                           
   687  0029                     ?_SW_Func:	
   688                           ; 1 bytes @ 0x0
   689                           
   690  0029                     ?_Key_Application:	
   691                           ; 1 bytes @ 0x0
   692                           
   693  0029                     ?_comm_pack_tx:	
   694                           ; 1 bytes @ 0x0
   695                           
   696  0029                     ?_comm_parse_rx:	
   697                           ; 1 bytes @ 0x0
   698                           
   699  0029                     ?_Kcomm_ISR:	
   700                           ; 1 bytes @ 0x0
   701                           
   702  0029                     ?_Comm_Process:	
   703                           ; 1 bytes @ 0x0
   704                           
   705  0029                     ?_Flag_AllClear:	
   706                           ; 1 bytes @ 0x0
   707                           
   708  0029                     ?_main:	
   709                           ; 1 bytes @ 0x0
   710                           
   711  0029                     ?_Timer1_Isr:	
   712                           ; 1 bytes @ 0x0
   713                           
   714  0029                     comm_pack_tx@hi:	
   715                           ; 1 bytes @ 0x0
   716                           
   717                           
   718                           ; 1 bytes @ 0x0
   719                           ; 1 bytes @ 0x0
   720  0029                     	ds	1
   721  002A                     comm_pack_tx@result:	
   722                           
   723                           ; 1 bytes @ 0x1
   724  002A                     	ds	1
   725  002B                     comm_pack_tx@lo:	
   726                           
   727                           ; 1 bytes @ 0x2
   728  002B                     	ds	1
   729  002C                     _Kcomm_ISR$624:	
   730                           
   731                           ; 2 bytes @ 0x3
   732  002C                     	ds	2
   733  002E                     ??_Timer1_Isr:	
   734                           
   735                           ; 1 bytes @ 0x5
   736  002E                     	ds	3
   737  0031                     ?_Delay_Init:	
   738  0031                     ?_delay_us:	
   739  0031                     ??_fan_ramp_proc:	
   740                           ; 1 bytes @ 0x8
   741                           
   742  0031                     ?_adc_read_vdd:	
   743                           ; 1 bytes @ 0x8
   744                           
   745  0031                     show_gear_led@gear:	
   746                           ; 1 bytes @ 0x8
   747                           
   748  0031                     set_fan@gear:	
   749                           ; 2 bytes @ 0x8
   750                           
   751  0031                     trigger_warn@led_num:	
   752                           ; 1 bytes @ 0x8
   753                           
   754  0031                     comm_parse_rx@check:	
   755                           ; 1 bytes @ 0x8
   756                           
   757  0031                     Delay_Init@Delay_Duty:	
   758                           ; 1 bytes @ 0x8
   759                           
   760  0031                     delay_us@us:	
   761                           ; 1 bytes @ 0x8
   762                           
   763                           
   764                           ; 2 bytes @ 0x8
   765                           ; 2 bytes @ 0x8
   766  0031                     	ds	1
   767  0032                     comm_parse_rx@hi:	
   768                           
   769                           ; 1 bytes @ 0x9
   770  0032                     	ds	1
   771  0033                     comm_parse_rx@raw:	
   772  0033                     Delay_Init@i:	
   773  0033                     delay_us@i:	
   774                           ; 1 bytes @ 0xA
   775                           
   776  0033                     Battery_Update@adc_val:	
   777                           ; 2 bytes @ 0xA
   778                           
   779  0033                     fan_ramp_proc@target_fixed:	
   780                           ; 2 bytes @ 0xA
   781                           
   782                           
   783                           ; 2 bytes @ 0xA
   784                           ; 2 bytes @ 0xA
   785  0033                     	ds	1
   786  0034                     comm_parse_rx@lo:	
   787                           
   788                           ; 1 bytes @ 0xB
   789  0034                     	ds	1
   790                           
   791                           	psect	maintext
   792  05E8                     __pmaintext:	
   793  05E8                     _main:	
   794 ;;
   795 ;;Main: autosize = 0, tempsize = 0, incstack = 0, save=0
   796 ;;
   797 ;; *************** function _main *****************
   798 ;; Defined at:
   799 ;;		line 1453 in file "main.c"
   800 ;; Parameters:    Size  Location     Type
   801 ;;		None
   802 ;; Auto vars:     Size  Location     Type
   803 ;;		None
   804 ;; Return value:  Size  Location     Type
   805 ;;                  1    wreg      void 
   806 ;; Registers used:
   807 ;;		wreg, fsr0l, fsr0h, status,2, status,0, pclath, cstack
   808 ;; Tracked objects:
   809 ;;		On entry : B00/0
   810 ;;		On exit  : 0/0
   811 ;;		Unchanged: 0/0
   812 ;; Data sizes:     COMMON   BANK0   BANK1
   813 ;;      Params:         0       0       0
   814 ;;      Locals:         0       0       0
   815 ;;      Temps:          0       0       0
   816 ;;      Totals:         0       0       0
   817 ;;Total ram usage:        0 bytes
   818 ;; Hardware stack levels required when called:    6
   819 ;; This function calls:
   820 ;;		_ADC_Init
   821 ;;		_Battery_Update
   822 ;;		_Comm_Process
   823 ;;		_Delay_Init
   824 ;;		_Flag_AllClear
   825 ;;		_Key_Application
   826 ;;		_Key_Func
   827 ;;		_LedMode_Func
   828 ;;		_SW_Func
   829 ;;		_Sleep_Func
   830 ;;		_T1_PWM_inital
   831 ;;		_fan_ramp_proc
   832 ;;		_inital
   833 ;;		_ramInitial
   834 ;;		_set_fan
   835 ;;		_sysinitial
   836 ;; This function is called by:
   837 ;;		Startup code after reset
   838 ;; This function uses a non-reentrant model
   839 ;;
   840                           ;psect for function _main
   841                           
   842                           
   843                           ;main.c: 1455: ramInitial();
   844                           ;incstack = 0
   845                           ; Regs used in _main: [wreg-fsr0h+status,2+status,0+pclath+cstack]
   846  05E8  278B               	fcall	_ramInitial
   847                           
   848                           ;main.c: 1456: inital();
   849  05E9  27BB               	fcall	_inital
   850                           
   851                           ;main.c: 1457: Delay_Init(200);
   852  05EA  30C8               	movlw	200
   853  05EB  00B1               	movwf	Delay_Init@Delay_Duty
   854  05EC  01B2               	clrf	Delay_Init@Delay_Duty+1
   855  05ED  279C               	fcall	_Delay_Init
   856                           
   857                           ;main.c: 1458: ADC_Init();
   858  05EE  27D6               	fcall	_ADC_Init
   859                           
   860                           ;main.c: 1459: T1_PWM_inital();
   861  05EF  27AC               	fcall	_T1_PWM_inital
   862                           
   863                           ;main.c: 1460: sysinitial();
   864  05F0  264B               	fcall	_sysinitial
   865                           
   866                           ;main.c: 1461: WDTEN = 1;
   867  05F1  17C1               	bsf	65,7	;volatile
   868                           
   869                           ;main.c: 1463: Flag_AllClear();
   870  05F2  26A8               	fcall	_Flag_AllClear
   871                           
   872                           ;main.c: 1464: set_fan(0);
   873  05F3  3000               	movlw	0
   874  05F4  2763               	fcall	_set_fan
   875  05F5                     l5742:	
   876                           
   877                           ;main.c: 1466: {
   878                           ;main.c: 1467: T0IE = 1;
   879  05F5  1283               	bcf	3,5	;RP0=0, select bank0
   880  05F6  140E               	bsf	14,0	;volatile
   881                           
   882                           ;main.c: 1468: GIE = 1;
   883  05F7  178E               	bsf	14,7	;volatile
   884                           
   885                           ;main.c: 1469: if(DIY_Flag1.OnrBit.b0)
   886  05F8  1C23               	btfss	_DIY_Flag1,0
   887  05F9  2DF5               	goto	l5742
   888                           
   889                           ;main.c: 1470: {
   890                           ;main.c: 1471: DIY_Flag1.OnrBit.b0 = 0;
   891  05FA  1023               	bcf	_DIY_Flag1,0
   892  05FB  0064               	clrwdt	;# 
   893                           
   894                           ;main.c: 1477: Comm_Process();
   895  05FC  26F7               	fcall	_Comm_Process
   896                           
   897                           ;main.c: 1478: if(g_slave_alive_ms > 0)
   898  05FD  1683               	bsf	3,5	;RP0=1, select bank1
   899  05FE  0818               	movf	_g_slave_alive_ms^(0+128),w
   900  05FF  0419               	iorwf	(_g_slave_alive_ms+1)^(0+128),w
   901  0600  1903               	btfsc	3,2
   902  0601  2E09               	goto	l1405
   903                           
   904                           ;main.c: 1479: {
   905                           ;main.c: 1480: g_slave_alive_ms--;
   906  0602  3001               	movlw	1
   907  0603  0298               	subwf	_g_slave_alive_ms^(0+128),f
   908  0604  3000               	movlw	0
   909  0605  1C03               	btfss	3,0
   910  0606  0399               	decf	(_g_slave_alive_ms+1)^(0+128),f
   911  0607  0299               	subwf	(_g_slave_alive_ms+1)^(0+128),f
   912                           
   913                           ;main.c: 1481: }
   914  0608  2E12               	goto	l5764
   915  0609                     l1405:	
   916                           
   917                           ;main.c: 1482: else
   918                           ;main.c: 1483: {
   919                           ;main.c: 1484: if(g_slave_charging || g_slave_chargefull)
   920  0609  1283               	bcf	3,5	;RP0=0, select bank0
   921  060A  1A35               	btfsc	_g_slave_charging/(0+8),_g_slave_charging& (0+7)
   922  060B  2E0E               	goto	l5758
   923  060C  1DB5               	btfss	_g_slave_chargefull/(0+8),_g_slave_chargefull& (0+7)
   924  060D  2E10               	goto	l5760
   925  060E                     l5758:	
   926                           
   927                           ;main.c: 1485: {
   928                           ;main.c: 1487: g_gear = 0;
   929  060E  01A2               	clrf	_g_gear
   930                           
   931                           ;main.c: 1488: g_warn_flash = 0;
   932  060F  01A0               	clrf	_g_warn_flash
   933  0610                     l5760:	
   934                           
   935                           ;main.c: 1489: }
   936                           ;main.c: 1491: g_slave_charging = 0;
   937  0610  1235               	bcf	_g_slave_charging/(0+8),_g_slave_charging& (0+7)
   938                           
   939                           ;main.c: 1492: g_slave_chargefull = 0;
   940  0611  11B5               	bcf	_g_slave_chargefull/(0+8),_g_slave_chargefull& (0+7)
   941  0612                     l5764:	
   942                           
   943                           ;main.c: 1493: }
   944                           ;main.c: 1495: Battery_Update();
   945  0612  23E0               	fcall	_Battery_Update
   946                           
   947                           ;main.c: 1496: Key_Func();
   948  0613  261A               	fcall	_Key_Func
   949                           
   950                           ;main.c: 1497: SW_Func();
   951  0614  2732               	fcall	_SW_Func
   952                           
   953                           ;main.c: 1498: Key_Application();
   954  0615  201A               	fcall	_Key_Application
   955                           
   956                           ;main.c: 1499: fan_ramp_proc();
   957  0616  2529               	fcall	_fan_ramp_proc
   958                           
   959                           ;main.c: 1500: LedMode_Func();
   960  0617  2306               	fcall	_LedMode_Func
   961                           
   962                           ;main.c: 1501: Sleep_Func();
   963  0618  24B7               	fcall	_Sleep_Func
   964  0619  2DF5               	goto	l5742
   965  061A                     __end_of_main:	
   966                           
   967                           	psect	text1
   968  078B                     __ptext1:	
   969  078B                     _ramInitial:	
   970 ;; *************** function _ramInitial *****************
   971 ;; Defined at:
   972 ;;		line 68 in file "inital.c"
   973 ;; Parameters:    Size  Location     Type
   974 ;;		None
   975 ;; Auto vars:     Size  Location     Type
   976 ;;		None
   977 ;; Return value:  Size  Location     Type
   978 ;;                  1    wreg      void 
   979 ;; Registers used:
   980 ;;		wreg, status,2, status,0
   981 ;; Tracked objects:
   982 ;;		On entry : B00/0
   983 ;;		On exit  : B00/0
   984 ;;		Unchanged: A00/0
   985 ;; Data sizes:     COMMON   BANK0   BANK1
   986 ;;      Params:         0       0       0
   987 ;;      Locals:         0       0       0
   988 ;;      Temps:          0       0       0
   989 ;;      Totals:         0       0       0
   990 ;;Total ram usage:        0 bytes
   991 ;; Hardware stack levels used:    1
   992 ;; Hardware stack levels required when called:    3
   993 ;; This function calls:
   994 ;;		Nothing
   995 ;; This function is called by:
   996 ;;		_main
   997 ;; This function uses a non-reentrant model
   998 ;;
   999                           ;psect for function _ramInitial
  1000                           
  1001                           
  1002                           ;inital.c: 70: FSR=0X3f;
  1003                           ;incstack = 0
  1004                           ; Regs used in _ramInitial: [wreg+status,2+status,0]
  1005  078B  303F               	movlw	63
  1006  078C  0084               	movwf	4	;volatile
  1007  078D                     l3902:	
  1008                           
  1009                           ;inital.c: 72: INDF=0;
  1010  078D  0180               	clrf	0	;volatile
  1011                           
  1012                           ;inital.c: 73: FSR--;
  1013  078E  0384               	decf	4,f	;volatile
  1014                           
  1015                           ;inital.c: 74: }while(FSR != 0x0f);
  1016  078F  300F               	movlw	15
  1017  0790  0604               	xorwf	4,w	;volatile
  1018  0791  1D03               	btfss	3,2
  1019  0792  2F8D               	goto	l3902
  1020                           
  1021                           ;inital.c: 76: FSR=0Xdf;
  1022  0793  30DF               	movlw	223
  1023  0794  0084               	movwf	4	;volatile
  1024  0795                     l3910:	
  1025                           
  1026                           ;inital.c: 78: INDF=0;
  1027  0795  0180               	clrf	0	;volatile
  1028                           
  1029                           ;inital.c: 79: FSR--;
  1030  0796  0384               	decf	4,f	;volatile
  1031                           
  1032                           ;inital.c: 80: }while(FSR != 0x8f);
  1033  0797  308F               	movlw	143
  1034  0798  0604               	xorwf	4,w	;volatile
  1035  0799  1903               	btfsc	3,2
  1036  079A  0008               	return
  1037  079B  2F95               	goto	l3910
  1038  079C                     __end_of_ramInitial:	
  1039                           
  1040                           	psect	text2
  1041  0529                     __ptext2:	
  1042  0529                     _fan_ramp_proc:	
  1043 ;; *************** function _fan_ramp_proc *****************
  1044 ;; Defined at:
  1045 ;;		line 661 in file "main.c"
  1046 ;; Parameters:    Size  Location     Type
  1047 ;;		None
  1048 ;; Auto vars:     Size  Location     Type
  1049 ;;  target_fixed    2   10[BANK0 ] unsigned int 
  1050 ;; Return value:  Size  Location     Type
  1051 ;;                  1    wreg      void 
  1052 ;; Registers used:
  1053 ;;		wreg, status,2, status,0
  1054 ;; Tracked objects:
  1055 ;;		On entry : 100/0
  1056 ;;		On exit  : 100/0
  1057 ;;		Unchanged: 0/0
  1058 ;; Data sizes:     COMMON   BANK0   BANK1
  1059 ;;      Params:         0       0       0
  1060 ;;      Locals:         0       2       0
  1061 ;;      Temps:          0       2       0
  1062 ;;      Totals:         0       4       0
  1063 ;;Total ram usage:        4 bytes
  1064 ;; Hardware stack levels used:    1
  1065 ;; Hardware stack levels required when called:    3
  1066 ;; This function calls:
  1067 ;;		Nothing
  1068 ;; This function is called by:
  1069 ;;		_main
  1070 ;; This function uses a non-reentrant model
  1071 ;;
  1072                           ;psect for function _fan_ramp_proc
  1073                           
  1074                           
  1075                           ;main.c: 663: unsigned int target_fixed = (unsigned int)g_target_pwm << 4;
  1076                           ;incstack = 0
  1077                           ; Regs used in _fan_ramp_proc: [wreg+status,2+status,0]
  1078  0529  1683               	bsf	3,5	;RP0=1, select bank1
  1079  052A  0834               	movf	_g_target_pwm^(0+128),w
  1080  052B  1283               	bcf	3,5	;RP0=0, select bank0
  1081  052C  00B3               	movwf	fan_ramp_proc@target_fixed
  1082  052D  30F0               	movlw	240
  1083  052E  01B4               	clrf	fan_ramp_proc@target_fixed+1
  1084  052F  0EB3               	swapf	fan_ramp_proc@target_fixed,f
  1085  0530  0EB4               	swapf	fan_ramp_proc@target_fixed+1,f
  1086  0531  05B4               	andwf	fan_ramp_proc@target_fixed+1,f
  1087  0532  0833               	movf	fan_ramp_proc@target_fixed,w
  1088  0533  390F               	andlw	15
  1089  0534  04B4               	iorwf	fan_ramp_proc@target_fixed+1,f
  1090  0535  30F0               	movlw	240
  1091  0536  05B3               	andwf	fan_ramp_proc@target_fixed,f
  1092                           
  1093                           ;main.c: 665: if(g_current_pwm < target_fixed)
  1094  0537  0834               	movf	fan_ramp_proc@target_fixed+1,w
  1095  0538  0213               	subwf	_g_current_pwm+1,w
  1096  0539  1D03               	btfss	3,2
  1097  053A  2D3D               	goto	u3155
  1098  053B  0833               	movf	fan_ramp_proc@target_fixed,w
  1099  053C  0212               	subwf	_g_current_pwm,w
  1100  053D                     u3155:	
  1101  053D  1803               	btfsc	3,0
  1102  053E  2D49               	goto	l4192
  1103                           
  1104                           ;main.c: 666: {
  1105                           ;main.c: 667: g_current_pwm += 1;
  1106  053F  0A92               	incf	_g_current_pwm,f
  1107  0540  1903               	btfsc	3,2
  1108  0541  0A93               	incf	_g_current_pwm+1,f
  1109                           
  1110                           ;main.c: 668: if(g_current_pwm > target_fixed) g_current_pwm = target_fixed;
  1111  0542  0813               	movf	_g_current_pwm+1,w
  1112  0543  0234               	subwf	fan_ramp_proc@target_fixed+1,w
  1113  0544  1D03               	btfss	3,2
  1114  0545  2D5B               	goto	u3185
  1115  0546  0812               	movf	_g_current_pwm,w
  1116  0547  0233               	subwf	fan_ramp_proc@target_fixed,w
  1117  0548  2D5B               	goto	u3185
  1118  0549                     l4192:	
  1119                           
  1120                           ;main.c: 670: else if(g_current_pwm > target_fixed)
  1121  0549  0813               	movf	_g_current_pwm+1,w
  1122  054A  0234               	subwf	fan_ramp_proc@target_fixed+1,w
  1123  054B  1D03               	btfss	3,2
  1124  054C  2D4F               	goto	u3175
  1125  054D  0812               	movf	_g_current_pwm,w
  1126  054E  0233               	subwf	fan_ramp_proc@target_fixed,w
  1127  054F                     u3175:	
  1128  054F  1803               	btfsc	3,0
  1129  0550  2D61               	goto	l4198
  1130                           
  1131                           ;main.c: 671: {
  1132                           ;main.c: 672: g_current_pwm -= 1;
  1133  0551  3001               	movlw	1
  1134  0552  0292               	subwf	_g_current_pwm,f
  1135  0553  1C03               	btfss	3,0
  1136  0554  0393               	decf	_g_current_pwm+1,f
  1137                           
  1138                           ;main.c: 673: if(g_current_pwm < target_fixed) g_current_pwm = target_fixed;
  1139  0555  0834               	movf	fan_ramp_proc@target_fixed+1,w
  1140  0556  0213               	subwf	_g_current_pwm+1,w
  1141  0557  1D03               	btfss	3,2
  1142  0558  2D5B               	goto	u3185
  1143  0559  0833               	movf	fan_ramp_proc@target_fixed,w
  1144  055A  0212               	subwf	_g_current_pwm,w
  1145  055B                     u3185:	
  1146  055B  1803               	btfsc	3,0
  1147  055C  2D61               	goto	l4198
  1148  055D  0834               	movf	fan_ramp_proc@target_fixed+1,w
  1149  055E  0093               	movwf	_g_current_pwm+1
  1150  055F  0833               	movf	fan_ramp_proc@target_fixed,w
  1151  0560  0092               	movwf	_g_current_pwm
  1152  0561                     l4198:	
  1153                           
  1154                           ;main.c: 674: }
  1155                           ;main.c: 676: PWM0P = (unsigned char)(g_current_pwm >> 4);
  1156  0561  0813               	movf	_g_current_pwm+1,w
  1157  0562  00B2               	movwf	??_fan_ramp_proc+1
  1158  0563  0812               	movf	_g_current_pwm,w
  1159  0564  00B1               	movwf	??_fan_ramp_proc
  1160  0565  3004               	movlw	4
  1161  0566                     u3195:	
  1162  0566  1003               	bcf	3,0
  1163  0567  0CB2               	rrf	??_fan_ramp_proc+1,f
  1164  0568  0CB1               	rrf	??_fan_ramp_proc,f
  1165  0569  3EFF               	addlw	-1
  1166  056A  1D03               	btfss	3,2
  1167  056B  2D66               	goto	u3195
  1168  056C  0831               	movf	??_fan_ramp_proc,w
  1169  056D  00CF               	movwf	79	;volatile
  1170                           
  1171                           ;main.c: 677: if(PWM0P == 0) PORTB2 = 0;
  1172  056E  084F               	movf	79,w	;volatile
  1173  056F  1903               	btfsc	3,2
  1174  0570  1106               	bcf	6,2	;volatile
  1175  0571  0008               	return
  1176  0572                     __end_of_fan_ramp_proc:	
  1177                           
  1178                           	psect	text3
  1179  07AC                     __ptext3:	
  1180  07AC                     _T1_PWM_inital:	
  1181 ;; *************** function _T1_PWM_inital *****************
  1182 ;; Defined at:
  1183 ;;		line 21 in file "pwm.c"
  1184 ;; Parameters:    Size  Location     Type
  1185 ;;		None
  1186 ;; Auto vars:     Size  Location     Type
  1187 ;;		None
  1188 ;; Return value:  Size  Location     Type
  1189 ;;                  1    wreg      void 
  1190 ;; Registers used:
  1191 ;;		wreg, status,2
  1192 ;; Tracked objects:
  1193 ;;		On entry : 100/0
  1194 ;;		On exit  : 100/0
  1195 ;;		Unchanged: 0/0
  1196 ;; Data sizes:     COMMON   BANK0   BANK1
  1197 ;;      Params:         0       0       0
  1198 ;;      Locals:         0       0       0
  1199 ;;      Temps:          0       0       0
  1200 ;;      Totals:         0       0       0
  1201 ;;Total ram usage:        0 bytes
  1202 ;; Hardware stack levels used:    1
  1203 ;; Hardware stack levels required when called:    3
  1204 ;; This function calls:
  1205 ;;		Nothing
  1206 ;; This function is called by:
  1207 ;;		_main
  1208 ;; This function uses a non-reentrant model
  1209 ;;
  1210                           ;psect for function _T1_PWM_inital
  1211                           
  1212                           
  1213                           ;pwm.c: 23: WDTEN=0;
  1214                           ;incstack = 0
  1215                           ; Regs used in _T1_PWM_inital: [wreg+status,2]
  1216  07AC  13C1               	bcf	65,7	;volatile
  1217                           
  1218                           ;pwm.c: 26: TMR2H=0x40;
  1219  07AD  3040               	movlw	64
  1220  07AE  00D1               	movwf	81	;volatile
  1221                           
  1222                           ;pwm.c: 28: T1 = 0x68;
  1223  07AF  3068               	movlw	104
  1224  07B0  00CD               	movwf	77	;volatile
  1225                           
  1226                           ;pwm.c: 30: T1LOAD = 123;
  1227  07B1  307B               	movlw	123
  1228  07B2  00CE               	movwf	78	;volatile
  1229                           
  1230                           ;pwm.c: 31: PWM0P = 0;
  1231  07B3  01CF               	clrf	79	;volatile
  1232                           
  1233                           ;pwm.c: 33: T1CON=0x45;
  1234  07B4  3045               	movlw	69
  1235  07B5  00CC               	movwf	76	;volatile
  1236                           
  1237                           ;pwm.c: 35: T1IF=0;
  1238  07B6  104B               	bcf	75,0	;volatile
  1239                           
  1240                           ;pwm.c: 37: T1EN=1;
  1241  07B7  17CC               	bsf	76,7	;volatile
  1242                           
  1243                           ;pwm.c: 38: T1IE=0;
  1244  07B8  10CB               	bcf	75,1	;volatile
  1245                           
  1246                           ;pwm.c: 40: T1CR_AUXR = 0;
  1247  07B9  01CB               	clrf	75	;volatile
  1248  07BA  0008               	return
  1249  07BB                     __end_of_T1_PWM_inital:	
  1250                           
  1251                           	psect	text4
  1252  04B7                     __ptext4:	
  1253  04B7                     _Sleep_Func:	
  1254 ;; *************** function _Sleep_Func *****************
  1255 ;; Defined at:
  1256 ;;		line 234 in file "main.c"
  1257 ;; Parameters:    Size  Location     Type
  1258 ;;		None
  1259 ;; Auto vars:     Size  Location     Type
  1260 ;;  temp            1    0        unsigned char 
  1261 ;; Return value:  Size  Location     Type
  1262 ;;                  1    wreg      void 
  1263 ;; Registers used:
  1264 ;;		wreg, status,2, status,0, pclath, cstack
  1265 ;; Tracked objects:
  1266 ;;		On entry : 0/0
  1267 ;;		On exit  : 0/0
  1268 ;;		Unchanged: 0/0
  1269 ;; Data sizes:     COMMON   BANK0   BANK1
  1270 ;;      Params:         0       0       0
  1271 ;;      Locals:         0       0       0
  1272 ;;      Temps:          0       0       0
  1273 ;;      Totals:         0       0       0
  1274 ;;Total ram usage:        0 bytes
  1275 ;; Hardware stack levels used:    1
  1276 ;; Hardware stack levels required when called:    5
  1277 ;; This function calls:
  1278 ;;		_ADC_Init
  1279 ;;		_delay_us
  1280 ;;		_inital
  1281 ;;		_sysinitial
  1282 ;; This function is called by:
  1283 ;;		_main
  1284 ;; This function uses a non-reentrant model
  1285 ;;
  1286                           ;psect for function _Sleep_Func
  1287                           
  1288                           
  1289                           ;main.c: 236: static unsigned int Sleep_Time = 0;
  1290                           ;main.c: 239: if(B_OnOff_Flag || B_KEYHX_Flag || g_slave_charging || g_slave_chargefull 
      +                          || g_offshow_flag || kcomm_wakeup)
  1291                           ;incstack = 0
  1292                           ; Regs used in _Sleep_Func: [wreg+status,2+status,0+pclath+cstack]
  1293  04B7  1283               	bcf	3,5	;RP0=0, select bank0
  1294  04B8  1F35               	btfss	_B_OnOff_Flag/(0+8),_B_OnOff_Flag& (0+7)
  1295  04B9  1935               	btfsc	_B_KEYHX_Flag/(0+8),_B_KEYHX_Flag& (0+7)
  1296  04BA  2CC3               	goto	l5176
  1297  04BB  1E35               	btfss	_g_slave_charging/(0+8),_g_slave_charging& (0+7)
  1298  04BC  19B5               	btfsc	_g_slave_chargefull/(0+8),_g_slave_chargefull& (0+7)
  1299  04BD  2CC3               	goto	l5176
  1300  04BE  1835               	btfsc	_g_offshow_flag/(0+8),_g_offshow_flag& (0+7)
  1301  04BF  2CC3               	goto	l5176
  1302  04C0  0825               	movf	_kcomm_wakeup,w
  1303  04C1  1903               	btfsc	3,2
  1304  04C2  2CC6               	goto	l5178
  1305  04C3                     l5176:	
  1306                           
  1307                           ;main.c: 240: {
  1308                           ;main.c: 241: Sleep_Time = 0;
  1309  04C3  1683               	bsf	3,5	;RP0=1, select bank1
  1310  04C4  0196               	clrf	Sleep_Func@Sleep_Time^(0+128)
  1311  04C5  0197               	clrf	(Sleep_Func@Sleep_Time+1)^(0+128)
  1312  04C6                     l5178:	
  1313                           
  1314                           ;main.c: 242: }
  1315                           ;main.c: 243: Sleep_Time++;
  1316  04C6  1683               	bsf	3,5	;RP0=1, select bank1
  1317  04C7  0A96               	incf	Sleep_Func@Sleep_Time^(0+128),f
  1318  04C8  1903               	btfsc	3,2
  1319  04C9  0A97               	incf	(Sleep_Func@Sleep_Time+1)^(0+128),f
  1320                           
  1321                           ;main.c: 244: if(Sleep_Time >= 1000)
  1322  04CA  3003               	movlw	3
  1323  04CB  0217               	subwf	(Sleep_Func@Sleep_Time+1)^(0+128),w
  1324  04CC  30E8               	movlw	232
  1325  04CD  1903               	btfsc	3,2
  1326  04CE  0216               	subwf	Sleep_Func@Sleep_Time^(0+128),w
  1327  04CF  1C03               	btfss	3,0
  1328  04D0  0008               	return
  1329                           
  1330                           ;main.c: 245: {
  1331                           ;main.c: 246: Sleep_Time = 0;
  1332  04D1  0196               	clrf	Sleep_Func@Sleep_Time^(0+128)
  1333  04D2  0197               	clrf	(Sleep_Func@Sleep_Time+1)^(0+128)
  1334                           
  1335                           ;main.c: 247: (PORTB1 = 1);
  1336  04D3  1283               	bcf	3,5	;RP0=0, select bank0
  1337                           
  1338                           ;main.c: 248: (PORTB0 = 1);
  1339                           ;main.c: 249: (PORTA7 = 1);
  1340                           ;main.c: 250: (PORTA6 = 1);
  1341                           ;main.c: 251: (PORTA4 = 1);
  1342  04D4  218C               	fcall	PL2	;call to abstracted procedure
  1343                           
  1344                           ;main.c: 253: GIE = 0;
  1345  04D5  138E               	bcf	14,7	;volatile
  1346                           
  1347                           ;main.c: 254: T0IE = 0;
  1348  04D6  100E               	bcf	14,0	;volatile
  1349                           
  1350                           ;main.c: 255: T1IE = 0;
  1351  04D7  10CB               	bcf	75,1	;volatile
  1352                           
  1353                           ;main.c: 256: T2IE = 0;
  1354  04D8  134B               	bcf	75,6	;volatile
  1355                           
  1356                           ;main.c: 257: INTECON = 0;
  1357  04D9  018E               	clrf	14	;volatile
  1358                           
  1359                           ;main.c: 258: PIR = 0;
  1360  04DA  018F               	clrf	15	;volatile
  1361                           
  1362                           ;main.c: 260: ADCON0 = 0;
  1363  04DB  01DA               	clrf	90	;volatile
  1364                           
  1365                           ;main.c: 261: ADCON1 = 0;
  1366  04DC  01DB               	clrf	91	;volatile
  1367                           
  1368                           ;main.c: 262: ANSELL = 0;
  1369  04DD  01D6               	clrf	86	;volatile
  1370                           
  1371                           ;main.c: 263: ANSELH = 0;
  1372  04DE  01D7               	clrf	87	;volatile
  1373                           
  1374                           ;main.c: 266: TRISA = 0x0E;
  1375  04DF  300E               	movlw	14
  1376  04E0  00C5               	movwf	69	;volatile
  1377                           
  1378                           ;main.c: 267: TRISB = 0x48;
  1379  04E1  3048               	movlw	72
  1380                           
  1381                           ;main.c: 269: PHCON1 = 0xF1;
  1382                           ;main.c: 270: PHCON = 0xFF;
  1383                           ;main.c: 271: PDCON1 = 0xFF;
  1384                           ;main.c: 272: PDCON = 0xBF;
  1385  04E2  2520               	fcall	PL4	;call to abstracted procedure
  1386                           
  1387                           ;main.c: 274: delay_us(1000);
  1388  04E3  30E8               	movlw	232
  1389  04E4  00B1               	movwf	delay_us@us
  1390  04E5  3003               	movlw	3
  1391  04E6  00B2               	movwf	delay_us@us+1
  1392  04E7  2718               	fcall	_delay_us
  1393                           
  1394                           ;main.c: 276: BOREN = 0;
  1395  04E8  114B               	bcf	75,2	;volatile
  1396                           
  1397                           ;main.c: 277: WDTEN = 0;
  1398  04E9  13C1               	bcf	65,7	;volatile
  1399                           
  1400                           ;main.c: 280: IOCA = 0x0E;
  1401  04EA  300E               	movlw	14
  1402  04EB  0087               	movwf	7	;volatile
  1403                           
  1404                           ;main.c: 281: IOCB = 0x40;
  1405  04EC  3040               	movlw	64
  1406  04ED  0089               	movwf	9	;volatile
  1407                           
  1408                           ;main.c: 283: unsigned char temp;
  1409                           ;main.c: 284: temp = PORTA;
  1410  04EE  0805               	movf	5,w	;volatile
  1411                           
  1412                           ;main.c: 285: temp = PORTB;
  1413  04EF  0806               	movf	6,w	;volatile
  1414                           
  1415                           ;main.c: 288: PAIF = 0;
  1416  04F0  100F               	bcf	15,0	;volatile
  1417                           
  1418                           ;main.c: 289: PBIF = 0;
  1419  04F1  120E               	bcf	14,4	;volatile
  1420                           
  1421                           ;main.c: 290: PAIE = 1;
  1422  04F2  148F               	bsf	15,1	;volatile
  1423                           
  1424                           ;main.c: 291: PBIE = 1;
  1425  04F3  148E               	bsf	14,1	;volatile
  1426  04F4  0064               	clrwdt	;# 
  1427  04F5  0000               	nop	;# 
  1428  04F6  0063               	sleep	;# 
  1429  04F7  0000               	nop	;# 
  1430                           
  1431                           ;main.c: 300: WDTEN = 1;
  1432  04F8  1283               	bcf	3,5	;RP0=0, select bank0
  1433  04F9  17C1               	bsf	65,7	;volatile
  1434                           
  1435                           ;main.c: 301: ADEN = 1;
  1436  04FA  145A               	bsf	90,0	;volatile
  1437                           
  1438                           ;main.c: 304: if(((PORTB & 0x40) ? 1 : 0))
  1439  04FB  1F06               	btfss	6,6	;volatile
  1440  04FC  2D0D               	goto	l5250
  1441  04FD  30B8               	movlw	184
  1442                           
  1443                           ;main.c: 305: {
  1444                           ;main.c: 307: g_slave_charging = 1;
  1445  04FE  1635               	bsf	_g_slave_charging/(0+8),_g_slave_charging& (0+7)
  1446                           
  1447                           ;main.c: 308: g_slave_alive_ms = 3000;
  1448  04FF  1683               	bsf	3,5	;RP0=1, select bank1
  1449  0500  0098               	movwf	_g_slave_alive_ms^(0+128)
  1450  0501  300B               	movlw	11
  1451  0502  0099               	movwf	(_g_slave_alive_ms^(0+128)+1)
  1452  0503                     l1031:	
  1453                           
  1454                           ;main.c: 311: while(((PORTB & 0x40) ? 1 : 0))
  1455  0503  1283               	bcf	3,5	;RP0=0, select bank0
  1456  0504  1F06               	btfss	6,6	;volatile
  1457  0505  2D08               	goto	l5246
  1458  0506  0064               	clrwdt	;# 
  1459  0507  2D03               	goto	l1031
  1460  0508                     l5246:	
  1461                           
  1462                           ;main.c: 316: }
  1463                           ;main.c: 319: kcomm_cycle = 195;
  1464  0508  30C3               	movlw	195
  1465  0509  1683               	bsf	3,5	;RP0=1, select bank1
  1466  050A  00B7               	movwf	_kcomm_cycle^(0+128)
  1467                           
  1468                           ;main.c: 320: kcomm_wakeup = 0;
  1469  050B  1283               	bcf	3,5	;RP0=0, select bank0
  1470  050C  01A5               	clrf	_kcomm_wakeup
  1471  050D                     l5250:	
  1472                           
  1473                           ;main.c: 321: }
  1474                           ;main.c: 323: temp = PORTA;
  1475  050D  0805               	movf	5,w	;volatile
  1476                           
  1477                           ;main.c: 324: temp = PORTB;
  1478  050E  0806               	movf	6,w	;volatile
  1479                           
  1480                           ;main.c: 326: PAIF = 0;
  1481  050F  100F               	bcf	15,0	;volatile
  1482                           
  1483                           ;main.c: 327: PBIF = 0;
  1484  0510  120E               	bcf	14,4	;volatile
  1485                           
  1486                           ;main.c: 328: PAIE = 0;
  1487  0511  108F               	bcf	15,1	;volatile
  1488                           
  1489                           ;main.c: 329: PBIE = 0;
  1490  0512  108E               	bcf	14,1	;volatile
  1491                           
  1492                           ;main.c: 331: if(!PORTA2 || !PORTA1)
  1493  0513  1905               	btfsc	5,2	;volatile
  1494  0514  1C85               	btfss	5,1	;volatile
  1495                           
  1496                           ;main.c: 332: {
  1497                           ;main.c: 333: B_KEYHX_Flag = 1;
  1498  0515  1535               	bsf	_B_KEYHX_Flag/(0+8),_B_KEYHX_Flag& (0+7)
  1499                           
  1500                           ;main.c: 334: }
  1501                           ;main.c: 335: inital();
  1502  0516  27BB               	fcall	_inital
  1503                           
  1504                           ;main.c: 336: sysinitial();
  1505  0517  264B               	fcall	_sysinitial
  1506                           
  1507                           ;main.c: 337: ADC_Init();
  1508  0518  27D6               	fcall	_ADC_Init
  1509                           
  1510                           ;main.c: 338: BOREN = 1;
  1511  0519  154B               	bsf	75,2	;volatile
  1512                           
  1513                           ;main.c: 339: Sleep_Time = 0;
  1514  051A  1683               	bsf	3,5	;RP0=1, select bank1
  1515  051B  0196               	clrf	Sleep_Func@Sleep_Time^(0+128)
  1516  051C  0197               	clrf	(Sleep_Func@Sleep_Time+1)^(0+128)
  1517                           
  1518                           ;main.c: 340: DIY_Flag1.OnrBit.b0 = 0;
  1519  051D  1283               	bcf	3,5	;RP0=0, select bank0
  1520  051E  1023               	bcf	_DIY_Flag1,0
  1521  051F  0008               	return
  1522  0520                     __end_of_Sleep_Func:	
  1523  0520                     PL4:	
  1524  0520  00C6               	movwf	70	;volatile
  1525  0521  30F1               	movlw	241
  1526  0522  00C3               	movwf	67	;volatile
  1527  0523  30FF               	movlw	255
  1528  0524  008D               	movwf	13	;volatile
  1529  0525  00C2               	movwf	66	;volatile
  1530  0526  30BF               	movlw	191
  1531  0527  008B               	movwf	11	;volatile
  1532  0528  0008               	return
  1533  0529                     __end_ofPL4:	
  1534                           
  1535                           	psect	text5
  1536  064B                     __ptext5:	
  1537  064B                     _sysinitial:	
  1538 ;; *************** function _sysinitial *****************
  1539 ;; Defined at:
  1540 ;;		line 40 in file "inital.c"
  1541 ;; Parameters:    Size  Location     Type
  1542 ;;		None
  1543 ;; Auto vars:     Size  Location     Type
  1544 ;;		None
  1545 ;; Return value:  Size  Location     Type
  1546 ;;                  1    wreg      void 
  1547 ;; Registers used:
  1548 ;;		wreg, status,2
  1549 ;; Tracked objects:
  1550 ;;		On entry : 100/0
  1551 ;;		On exit  : 100/0
  1552 ;;		Unchanged: 0/0
  1553 ;; Data sizes:     COMMON   BANK0   BANK1
  1554 ;;      Params:         0       0       0
  1555 ;;      Locals:         0       0      12
  1556 ;;      Temps:          0       0       0
  1557 ;;      Totals:         0       0      12
  1558 ;;Total ram usage:       12 bytes
  1559 ;; Hardware stack levels used:    1
  1560 ;; Hardware stack levels required when called:    3
  1561 ;; This function calls:
  1562 ;;		Nothing
  1563 ;; This function is called by:
  1564 ;;		_Sleep_Func
  1565 ;;		_main
  1566 ;; This function uses a non-reentrant model
  1567 ;;
  1568                           ;psect for function _sysinitial
  1569                           
  1570                           
  1571                           ;inital.c: 43: INTECON = 0x00;
  1572                           ;incstack = 0
  1573                           ; Regs used in _sysinitial: [wreg+status,2]
  1574  064B  018E               	clrf	14	;volatile
  1575                           
  1576                           ;inital.c: 45: OPTION = 0X00;
  1577  064C  01C1               	clrf	65	;volatile
  1578                           
  1579                           ;inital.c: 57: INTECON = ( 1 ? (INTECON|(0x01<<0)) : (INTECON&(0xff-(0x01<<0))) );
  1580  064D  080E               	movf	14,w	;volatile
  1581  064E  1683               	bsf	3,5	;RP0=1, select bank1
  1582  064F  00BC               	movwf	_sysinitial$240^(0+128)
  1583  0650  01BD               	clrf	(_sysinitial$240+1)^(0+128)
  1584  0651  143C               	bsf	_sysinitial$240^(0+128),0
  1585                           
  1586                           ;inital.c: 58: INTECON = ( 0 ? (INTECON|(0x01<<3)) : (INTECON&(0xff-(0x01<<3))) );
  1587  0652  083C               	movf	_sysinitial$240^(0+128),w
  1588  0653  1283               	bcf	3,5	;RP0=0, select bank0
  1589  0654  008E               	movwf	14	;volatile
  1590  0655  080E               	movf	14,w	;volatile
  1591  0656  39F7               	andlw	247
  1592  0657  1683               	bsf	3,5	;RP0=1, select bank1
  1593  0658  00BE               	movwf	_sysinitial$241^(0+128)
  1594  0659  01BF               	clrf	(_sysinitial$241+1)^(0+128)
  1595  065A  1283               	bcf	3,5	;RP0=0, select bank0
  1596  065B  008E               	movwf	14	;volatile
  1597                           
  1598                           ;inital.c: 59: INTECON = ( 1 ? (INTECON|(0x01<<7)) : (INTECON&(0xff-(0x01<<7))) );
  1599  065C  080E               	movf	14,w	;volatile
  1600  065D  1683               	bsf	3,5	;RP0=1, select bank1
  1601  065E  00C0               	movwf	_sysinitial$242^(0+128)
  1602  065F  01C1               	clrf	(_sysinitial$242+1)^(0+128)
  1603  0660  17C0               	bsf	_sysinitial$242^(0+128),7
  1604  0661  0840               	movf	_sysinitial$242^(0+128),w
  1605  0662  1283               	bcf	3,5	;RP0=0, select bank0
  1606  0663  008E               	movwf	14	;volatile
  1607                           
  1608                           ;inital.c: 61: T1CON = ( 1 ? (T1CON|(0x01<<5)) : (T1CON&(0xff-(0x01<<5))) );
  1609  0664  084C               	movf	76,w	;volatile
  1610  0665  1683               	bsf	3,5	;RP0=1, select bank1
  1611  0666  00C2               	movwf	_sysinitial$243^(0+128)
  1612  0667  01C3               	clrf	(_sysinitial$243+1)^(0+128)
  1613  0668  16C2               	bsf	_sysinitial$243^(0+128),5
  1614                           
  1615                           ;inital.c: 63: OPTION = ( 0 ? (OPTION|(0x01<<5)) : (OPTION&(0xff-(0x01<<5))) );
  1616  0669  0842               	movf	_sysinitial$243^(0+128),w
  1617  066A  1283               	bcf	3,5	;RP0=0, select bank0
  1618  066B  00CC               	movwf	76	;volatile
  1619  066C  0841               	movf	65,w	;volatile
  1620  066D  39DF               	andlw	223
  1621  066E  1683               	bsf	3,5	;RP0=1, select bank1
  1622  066F  00C4               	movwf	_sysinitial$244^(0+128)
  1623  0670  01C5               	clrf	(_sysinitial$244+1)^(0+128)
  1624                           
  1625                           ;inital.c: 64: OPTION = ( 0 ? (OPTION|(0x01<<4)) : (OPTION&(0xff-(0x01<<4))) );
  1626  0671  1283               	bcf	3,5	;RP0=0, select bank0
  1627  0672  00C1               	movwf	65	;volatile
  1628  0673  0841               	movf	65,w	;volatile
  1629  0674  39EF               	andlw	239
  1630  0675  1683               	bsf	3,5	;RP0=1, select bank1
  1631  0676  00C6               	movwf	_sysinitial$245^(0+128)
  1632  0677  01C7               	clrf	(_sysinitial$245+1)^(0+128)
  1633  0678  1283               	bcf	3,5	;RP0=0, select bank0
  1634  0679  00C1               	movwf	65	;volatile
  1635  067A  0008               	return
  1636  067B                     __end_of_sysinitial:	
  1637                           
  1638                           	psect	text6
  1639  07BB                     __ptext6:	
  1640  07BB                     _inital:	
  1641 ;; *************** function _inital *****************
  1642 ;; Defined at:
  1643 ;;		line 13 in file "inital.c"
  1644 ;; Parameters:    Size  Location     Type
  1645 ;;		None
  1646 ;; Auto vars:     Size  Location     Type
  1647 ;;		None
  1648 ;; Return value:  Size  Location     Type
  1649 ;;                  1    wreg      void 
  1650 ;; Registers used:
  1651 ;;		wreg, status,2
  1652 ;; Tracked objects:
  1653 ;;		On entry : 100/0
  1654 ;;		On exit  : 100/0
  1655 ;;		Unchanged: 0/0
  1656 ;; Data sizes:     COMMON   BANK0   BANK1
  1657 ;;      Params:         0       0       0
  1658 ;;      Locals:         0       0       0
  1659 ;;      Temps:          0       0       0
  1660 ;;      Totals:         0       0       0
  1661 ;;Total ram usage:        0 bytes
  1662 ;; Hardware stack levels used:    1
  1663 ;; Hardware stack levels required when called:    3
  1664 ;; This function calls:
  1665 ;;		Nothing
  1666 ;; This function is called by:
  1667 ;;		_Sleep_Func
  1668 ;;		_main
  1669 ;; This function uses a non-reentrant model
  1670 ;;
  1671                           ;psect for function _inital
  1672                           
  1673                           
  1674                           ;inital.c: 15: ANSELL=0X00;
  1675                           ;incstack = 0
  1676                           ; Regs used in _inital: [wreg+status,2]
  1677  07BB  01D6               	clrf	86	;volatile
  1678                           
  1679                           ;inital.c: 16: ANSELH=0X00;
  1680  07BC  01D7               	clrf	87	;volatile
  1681                           
  1682                           ;inital.c: 18: PORTA=0XD0;
  1683  07BD  30D0               	movlw	208
  1684  07BE  0085               	movwf	5	;volatile
  1685                           
  1686                           ;inital.c: 19: PORTB=0X03;
  1687  07BF  3003               	movlw	3
  1688  07C0  0086               	movwf	6	;volatile
  1689                           
  1690                           ;inital.c: 21: TRISA=0X0E;
  1691  07C1  300E               	movlw	14
  1692  07C2  00C5               	movwf	69	;volatile
  1693                           
  1694                           ;inital.c: 22: TRISB=0X08;
  1695  07C3  3008               	movlw	8
  1696                           
  1697                           ;inital.c: 24: PHCON1=0XF1;
  1698                           ;inital.c: 25: PHCON=0XFF;
  1699                           ;inital.c: 27: PDCON1=0xFF;
  1700                           ;inital.c: 28: PDCON=0xBF;
  1701  07C4  2520               	fcall	PL4	;call to abstracted procedure
  1702                           
  1703                           ;inital.c: 31: IOCA=0X00;
  1704  07C5  0187               	clrf	7	;volatile
  1705                           
  1706                           ;inital.c: 32: IOCB=0X00;
  1707  07C6  0189               	clrf	9	;volatile
  1708                           
  1709                           ;inital.c: 34: PBIE=0;
  1710  07C7  108E               	bcf	14,1	;volatile
  1711  07C8  0008               	return
  1712  07C9                     __end_of_inital:	
  1713                           
  1714                           	psect	text7
  1715  07D6                     __ptext7:	
  1716  07D6                     _ADC_Init:	
  1717 ;; *************** function _ADC_Init *****************
  1718 ;; Defined at:
  1719 ;;		line 348 in file "main.c"
  1720 ;; Parameters:    Size  Location     Type
  1721 ;;		None
  1722 ;; Auto vars:     Size  Location     Type
  1723 ;;		None
  1724 ;; Return value:  Size  Location     Type
  1725 ;;                  1    wreg      void 
  1726 ;; Registers used:
  1727 ;;		wreg, status,2, status,0, pclath, cstack
  1728 ;; Tracked objects:
  1729 ;;		On entry : 100/0
  1730 ;;		On exit  : 100/0
  1731 ;;		Unchanged: 0/0
  1732 ;; Data sizes:     COMMON   BANK0   BANK1
  1733 ;;      Params:         0       0       0
  1734 ;;      Locals:         0       0       0
  1735 ;;      Temps:          0       0       0
  1736 ;;      Totals:         0       0       0
  1737 ;;Total ram usage:        0 bytes
  1738 ;; Hardware stack levels used:    1
  1739 ;; Hardware stack levels required when called:    4
  1740 ;; This function calls:
  1741 ;;		_delay_us
  1742 ;; This function is called by:
  1743 ;;		_Sleep_Func
  1744 ;;		_main
  1745 ;; This function uses a non-reentrant model
  1746 ;;
  1747                           ;psect for function _ADC_Init
  1748                           
  1749                           
  1750                           ;main.c: 350: ANSELL=0X20;
  1751                           ;incstack = 0
  1752                           ; Regs used in _ADC_Init: [wreg+status,2+status,0+pclath+cstack]
  1753  07D6  3020               	movlw	32
  1754  07D7  00D6               	movwf	86	;volatile
  1755                           
  1756                           ;main.c: 351: ANSELH=0X00;
  1757  07D8  01D7               	clrf	87	;volatile
  1758                           
  1759                           ;main.c: 352: ADCON0=0X15;
  1760  07D9  3015               	movlw	21
  1761  07DA  00DA               	movwf	90	;volatile
  1762                           
  1763                           ;main.c: 353: adcon1_val = 0X08;
  1764  07DB  3008               	movlw	8
  1765  07DC  00A4               	movwf	_adcon1_val
  1766                           
  1767                           ;main.c: 354: ADCON1 = adcon1_val;
  1768  07DD  00DB               	movwf	91	;volatile
  1769                           
  1770                           ;main.c: 355: ADEN = 1;
  1771  07DE  145A               	bsf	90,0	;volatile
  1772                           
  1773                           ;main.c: 356: delay_us(100);
  1774  07DF  3064               	movlw	100
  1775  07E0  00B1               	movwf	delay_us@us
  1776  07E1  01B2               	clrf	delay_us@us+1
  1777  07E2  2F18               	ljmp	l3588
  1778  07E3                     __end_of_ADC_Init:	
  1779                           
  1780                           	psect	text8
  1781  0718                     __ptext8:	
  1782  0718                     _delay_us:	
  1783 ;; *************** function _delay_us *****************
  1784 ;; Defined at:
  1785 ;;		line 218 in file "main.c"
  1786 ;; Parameters:    Size  Location     Type
  1787 ;;  us              2    8[BANK0 ] unsigned int 
  1788 ;; Auto vars:     Size  Location     Type
  1789 ;;  i               2   10[BANK0 ] unsigned int 
  1790 ;; Return value:  Size  Location     Type
  1791 ;;                  1    wreg      void 
  1792 ;; Registers used:
  1793 ;;		wreg, status,2, status,0
  1794 ;; Tracked objects:
  1795 ;;		On entry : 100/0
  1796 ;;		On exit  : 100/0
  1797 ;;		Unchanged: 0/0
  1798 ;; Data sizes:     COMMON   BANK0   BANK1
  1799 ;;      Params:         0       2       0
  1800 ;;      Locals:         0       2       0
  1801 ;;      Temps:          0       0       0
  1802 ;;      Totals:         0       4       0
  1803 ;;Total ram usage:        4 bytes
  1804 ;; Hardware stack levels used:    1
  1805 ;; Hardware stack levels required when called:    3
  1806 ;; This function calls:
  1807 ;;		Nothing
  1808 ;; This function is called by:
  1809 ;;		_Sleep_Func
  1810 ;;		_ADC_Init
  1811 ;; This function uses a non-reentrant model
  1812 ;;
  1813                           ;psect for function _delay_us
  1814                           
  1815  0718                     l3588:	
  1816                           
  1817                           ;main.c: 220: unsigned int i;
  1818                           ;main.c: 222: while(us--)
  1819                           ;incstack = 0
  1820                           ; Regs used in _delay_us: [wreg+status,2+status,0]
  1821  0718  3001               	movlw	1
  1822  0719  02B1               	subwf	delay_us@us,f
  1823  071A  3000               	movlw	0
  1824  071B  1C03               	btfss	3,0
  1825  071C  03B2               	decf	delay_us@us+1,f
  1826  071D  02B2               	subwf	delay_us@us+1,f
  1827  071E  0F31               	incfsz	delay_us@us,w
  1828  071F  2F23               	goto	l3578
  1829  0720  0A32               	incf	delay_us@us+1,w
  1830  0721  1903               	btfsc	3,2
  1831  0722  0008               	return
  1832  0723                     l3578:	
  1833                           
  1834                           ;main.c: 223: {
  1835                           ;main.c: 225: for(i = 0; i < 4; i++)
  1836  0723  01B3               	clrf	delay_us@i
  1837  0724  01B4               	clrf	delay_us@i+1
  1838  0725                     l1018:	
  1839  0725  0000               	nop	;# 
  1840  0726  1283               	bcf	3,5	;RP0=0, select bank0
  1841  0727  0AB3               	incf	delay_us@i,f
  1842  0728  1903               	btfsc	3,2
  1843  0729  0AB4               	incf	delay_us@i+1,f
  1844  072A  3000               	movlw	0
  1845  072B  0234               	subwf	delay_us@i+1,w
  1846  072C  3004               	movlw	4
  1847  072D  1903               	btfsc	3,2
  1848  072E  0233               	subwf	delay_us@i,w
  1849  072F  1803               	btfsc	3,0
  1850  0730  2F18               	goto	l3588
  1851  0731  2F25               	goto	l1018
  1852  0732                     __end_of_delay_us:	
  1853                           
  1854                           	psect	text9
  1855  0732                     __ptext9:	
  1856  0732                     _SW_Func:	
  1857 ;; *************** function _SW_Func *****************
  1858 ;; Defined at:
  1859 ;;		line 789 in file "main.c"
  1860 ;; Parameters:    Size  Location     Type
  1861 ;;		None
  1862 ;; Auto vars:     Size  Location     Type
  1863 ;;		None
  1864 ;; Return value:  Size  Location     Type
  1865 ;;                  1    wreg      void 
  1866 ;; Registers used:
  1867 ;;		wreg, status,2, status,0
  1868 ;; Tracked objects:
  1869 ;;		On entry : 0/100
  1870 ;;		On exit  : 0/0
  1871 ;;		Unchanged: 0/0
  1872 ;; Data sizes:     COMMON   BANK0   BANK1
  1873 ;;      Params:         0       0       0
  1874 ;;      Locals:         0       0       0
  1875 ;;      Temps:          0       0       0
  1876 ;;      Totals:         0       0       0
  1877 ;;Total ram usage:        0 bytes
  1878 ;; Hardware stack levels used:    1
  1879 ;; Hardware stack levels required when called:    3
  1880 ;; This function calls:
  1881 ;;		Nothing
  1882 ;; This function is called by:
  1883 ;;		_main
  1884 ;; This function uses a non-reentrant model
  1885 ;;
  1886                           ;psect for function _SW_Func
  1887                           
  1888                           
  1889                           ;main.c: 791: static unsigned char sw_time1 = 0;
  1890                           ;main.c: 792: static unsigned char sw_time2 = 0;
  1891                           ;main.c: 794: if(PORTA3)
  1892                           ;incstack = 0
  1893                           ; Regs used in _SW_Func: [wreg+status,2+status,0]
  1894  0732  1283               	bcf	3,5	;RP0=0, select bank0
  1895  0733  1D85               	btfss	5,3	;volatile
  1896  0734  2F41               	goto	l4262
  1897  0735  3014               	movlw	20
  1898                           
  1899                           ;main.c: 795: {
  1900                           ;main.c: 797: sw_time2 = 0;
  1901  0736  1683               	bsf	3,5	;RP0=1, select bank1
  1902  0737  01A6               	clrf	SW_Func@sw_time2^(0+128)
  1903                           
  1904                           ;main.c: 798: sw_time1 ++;
  1905  0738  0AA7               	incf	SW_Func@sw_time1^(0+128),f
  1906                           
  1907                           ;main.c: 799: if(sw_time1 >= 20)
  1908  0739  0227               	subwf	SW_Func@sw_time1^(0+128),w
  1909  073A  1C03               	btfss	3,0
  1910  073B  0008               	return
  1911                           
  1912                           ;main.c: 800: {
  1913                           ;main.c: 801: sw_time1 = 0;
  1914  073C  01A7               	clrf	SW_Func@sw_time1^(0+128)
  1915                           
  1916                           ;main.c: 802: B_OnOff_Flag = 0;
  1917  073D  1283               	bcf	3,5	;RP0=0, select bank0
  1918  073E  1335               	bcf	_B_OnOff_Flag/(0+8),_B_OnOff_Flag& (0+7)
  1919  073F                     l4260:	
  1920                           
  1921                           ;main.c: 803: B_KEYHX_Flag = 0;
  1922  073F  1135               	bcf	_B_KEYHX_Flag/(0+8),_B_KEYHX_Flag& (0+7)
  1923  0740  0008               	return
  1924  0741                     l4262:	
  1925  0741  3014               	movlw	20
  1926                           
  1927                           ;main.c: 806: else
  1928                           ;main.c: 807: {
  1929                           ;main.c: 809: sw_time1 = 0;
  1930  0742  1683               	bsf	3,5	;RP0=1, select bank1
  1931  0743  01A7               	clrf	SW_Func@sw_time1^(0+128)
  1932                           
  1933                           ;main.c: 810: sw_time2 ++;
  1934  0744  0AA6               	incf	SW_Func@sw_time2^(0+128),f
  1935                           
  1936                           ;main.c: 811: if(sw_time2 >= 20)
  1937  0745  0226               	subwf	SW_Func@sw_time2^(0+128),w
  1938  0746  1C03               	btfss	3,0
  1939  0747  0008               	return
  1940                           
  1941                           ;main.c: 812: {
  1942                           ;main.c: 813: sw_time2 = 0;
  1943  0748  01A6               	clrf	SW_Func@sw_time2^(0+128)
  1944                           
  1945                           ;main.c: 814: B_OnOff_Flag = 1;
  1946  0749  1283               	bcf	3,5	;RP0=0, select bank0
  1947  074A  1735               	bsf	_B_OnOff_Flag/(0+8),_B_OnOff_Flag& (0+7)
  1948  074B  2F3F               	goto	l4260
  1949  074C                     __end_of_SW_Func:	
  1950                           
  1951                           	psect	text10
  1952  0306                     __ptext10:	
  1953  0306                     _LedMode_Func:	
  1954 ;; *************** function _LedMode_Func *****************
  1955 ;; Defined at:
  1956 ;;		line 388 in file "main.c"
  1957 ;; Parameters:    Size  Location     Type
  1958 ;;		None
  1959 ;; Auto vars:     Size  Location     Type
  1960 ;;		None
  1961 ;; Return value:  Size  Location     Type
  1962 ;;                  1    wreg      void 
  1963 ;; Registers used:
  1964 ;;		wreg, status,2, status,0, pclath, cstack
  1965 ;; Tracked objects:
  1966 ;;		On entry : 100/0
  1967 ;;		On exit  : 0/0
  1968 ;;		Unchanged: 0/0
  1969 ;; Data sizes:     COMMON   BANK0   BANK1
  1970 ;;      Params:         0       0       0
  1971 ;;      Locals:         0       0       0
  1972 ;;      Temps:          0       0       0
  1973 ;;      Totals:         0       0       0
  1974 ;;Total ram usage:        0 bytes
  1975 ;; Hardware stack levels used:    1
  1976 ;; Hardware stack levels required when called:    4
  1977 ;; This function calls:
  1978 ;;		_show_gear_led
  1979 ;; This function is called by:
  1980 ;;		_main
  1981 ;; This function uses a non-reentrant model
  1982 ;;
  1983                           ;psect for function _LedMode_Func
  1984                           
  1985                           
  1986                           ;main.c: 391: static unsigned char chg_pwm_cnt = 0;
  1987                           ;main.c: 392: static unsigned char breath_duty = 0;
  1988                           ;main.c: 393: static unsigned char breath_dir = 1;
  1989                           ;main.c: 394: static unsigned char breath_cnt = 0;
  1990                           ;main.c: 395: static unsigned char disp_level = 0;
  1991                           ;main.c: 396: static unsigned char lv_debounce = 0;
  1992                           ;main.c: 399: if(g_battery_empty)
  1993                           ;incstack = 0
  1994                           ; Regs used in _LedMode_Func: [wreg+status,2+status,0+pclath+cstack]
  1995  0306  0821               	movf	_g_battery_empty,w
  1996  0307  1903               	btfsc	3,2
  1997  0308  2B0B               	goto	l5278
  1998  0309                     l5276:	
  1999                           
  2000                           ;main.c: 400: {
  2001                           ;main.c: 401: (PORTB1 = 1);
  2002                           ;main.c: 402: (PORTB0 = 1);
  2003                           ;main.c: 403: (PORTA7 = 1);
  2004                           ;main.c: 404: (PORTA6 = 1);
  2005                           ;main.c: 405: (PORTA4 = 1);
  2006  0309  218C               	fcall	PL2	;call to abstracted procedure
  2007                           
  2008                           ;main.c: 406: return;
  2009  030A  0008               	return
  2010  030B                     l5278:	
  2011                           
  2012                           ;main.c: 407: }
  2013                           ;main.c: 409: if(disp_level != level)
  2014  030B  081A               	movf	LedMode_Func@disp_level,w
  2015  030C  061D               	xorwf	_level,w
  2016  030D  1903               	btfsc	3,2
  2017  030E  2B1C               	goto	l5288
  2018                           
  2019                           ;main.c: 410: {
  2020                           ;main.c: 411: if(lv_debounce < 3) lv_debounce++;
  2021  030F  3003               	movlw	3
  2022  0310  1683               	bsf	3,5	;RP0=1, select bank1
  2023  0311  022F               	subwf	LedMode_Func@lv_debounce^(0+128),w
  2024  0312  1C03               	btfss	3,0
  2025  0313  0AAF               	incf	LedMode_Func@lv_debounce^(0+128),f
  2026                           
  2027                           ;main.c: 412: if(lv_debounce >= 3) disp_level = level;
  2028  0314  3003               	movlw	3
  2029  0315  022F               	subwf	LedMode_Func@lv_debounce^(0+128),w
  2030  0316  1283               	bcf	3,5	;RP0=0, select bank0
  2031  0317  1C03               	btfss	3,0
  2032  0318  2B1F               	goto	L1
  2033  0319  081D               	movf	_level,w
  2034  031A  009A               	movwf	LedMode_Func@disp_level
  2035  031B  2B1E               	goto	l5290
  2036  031C                     l5288:	
  2037                           
  2038                           ;main.c: 414: else
  2039                           ;main.c: 415: {
  2040                           ;main.c: 416: lv_debounce = 0;
  2041  031C  1683               	bsf	3,5	;RP0=1, select bank1
  2042  031D  01AF               	clrf	LedMode_Func@lv_debounce^(0+128)
  2043  031E                     l5290:	
  2044                           
  2045                           ;main.c: 417: }
  2046                           ;main.c: 419: if((g_slave_charging || g_slave_chargefull) && !B_OnOff_Flag)
  2047  031E  1283               	bcf	3,5	;RP0=0, select bank0
  2048  031F                     L1:	
  2049  031F  1A35               	btfsc	_g_slave_charging/(0+8),_g_slave_charging& (0+7)
  2050  0320  2B23               	goto	l1070
  2051  0321  1DB5               	btfss	_g_slave_chargefull/(0+8),_g_slave_chargefull& (0+7)
  2052  0322  2B9C               	goto	l1068
  2053  0323                     l1070:	
  2054  0323  1B35               	btfsc	_B_OnOff_Flag/(0+8),_B_OnOff_Flag& (0+7)
  2055  0324  2B9C               	goto	l1068
  2056  0325  3032               	movlw	50
  2057                           
  2058                           ;main.c: 420: {
  2059                           ;main.c: 422: breath_cnt++;
  2060  0326  1683               	bsf	3,5	;RP0=1, select bank1
  2061  0327  0AB0               	incf	LedMode_Func@breath_cnt^(0+128),f
  2062                           
  2063                           ;main.c: 423: if(breath_cnt >= 50)
  2064  0328  0230               	subwf	LedMode_Func@breath_cnt^(0+128),w
  2065  0329  1C03               	btfss	3,0
  2066  032A  2B42               	goto	l5312
  2067                           
  2068                           ;main.c: 424: {
  2069                           ;main.c: 425: breath_cnt = 0;
  2070  032B  01B0               	clrf	LedMode_Func@breath_cnt^(0+128)
  2071                           
  2072                           ;main.c: 426: if(breath_dir)
  2073  032C  0849               	movf	LedMode_Func@breath_dir^(0+128),w
  2074  032D  1903               	btfsc	3,2
  2075  032E  2B39               	goto	l5308
  2076                           
  2077                           ;main.c: 427: {
  2078                           ;main.c: 428: if(breath_duty < 20) breath_duty++;
  2079  032F  3014               	movlw	20
  2080  0330  1283               	bcf	3,5	;RP0=0, select bank0
  2081  0331  021B               	subwf	LedMode_Func@breath_duty,w
  2082  0332  1803               	btfsc	3,0
  2083  0333  2B36               	goto	l5306
  2084  0334  0A9B               	incf	LedMode_Func@breath_duty,f
  2085  0335  2B42               	goto	l5312
  2086  0336                     l5306:	
  2087                           
  2088                           ;main.c: 429: else breath_dir = 0;
  2089  0336  1683               	bsf	3,5	;RP0=1, select bank1
  2090  0337  01C9               	clrf	LedMode_Func@breath_dir^(0+128)
  2091  0338  2B42               	goto	l5312
  2092  0339                     l5308:	
  2093                           
  2094                           ;main.c: 431: else
  2095                           ;main.c: 432: {
  2096                           ;main.c: 433: if(breath_duty > 0) breath_duty--;
  2097  0339  1283               	bcf	3,5	;RP0=0, select bank0
  2098  033A  081B               	movf	LedMode_Func@breath_duty,w
  2099  033B  1903               	btfsc	3,2
  2100  033C  2B3F               	goto	l1076
  2101  033D  039B               	decf	LedMode_Func@breath_duty,f
  2102  033E  2B42               	goto	l5312
  2103  033F                     l1076:	
  2104                           
  2105                           ;main.c: 434: else breath_dir = 1;
  2106  033F  1683               	bsf	3,5	;RP0=1, select bank1
  2107  0340  01C9               	clrf	LedMode_Func@breath_dir^(0+128)
  2108  0341  0AC9               	incf	LedMode_Func@breath_dir^(0+128),f
  2109  0342                     l5312:	
  2110  0342  3014               	movlw	20
  2111                           
  2112                           ;main.c: 435: }
  2113                           ;main.c: 436: }
  2114                           ;main.c: 439: chg_pwm_cnt++;
  2115  0343  1283               	bcf	3,5	;RP0=0, select bank0
  2116  0344  0A9C               	incf	LedMode_Func@chg_pwm_cnt,f
  2117                           
  2118                           ;main.c: 440: if(chg_pwm_cnt >= 20)
  2119  0345  021C               	subwf	LedMode_Func@chg_pwm_cnt,w
  2120  0346  1803               	btfsc	3,0
  2121                           
  2122                           ;main.c: 441: chg_pwm_cnt = 0;
  2123  0347  019C               	clrf	LedMode_Func@chg_pwm_cnt
  2124                           
  2125                           ;main.c: 443: if(g_slave_chargefull)
  2126  0348  1DB5               	btfss	_g_slave_chargefull/(0+8),_g_slave_chargefull& (0+7)
  2127  0349  2B51               	goto	l5328
  2128                           
  2129                           ;main.c: 444: {
  2130                           ;main.c: 446: (PORTB1 = 0); (PORTB0 = 0); (PORTA7 = 0); (PORTA6 = 0); (PORTA4 = 0);
  2131  034A  25AD               	fcall	PL16	;call to abstracted procedure
  2132                           
  2133                           ;main.c: 447: breath_duty = 20;
  2134  034B  3014               	movlw	20
  2135  034C  009B               	movwf	LedMode_Func@breath_duty
  2136                           
  2137                           ;main.c: 448: breath_dir = 0;
  2138  034D  1683               	bsf	3,5	;RP0=1, select bank1
  2139  034E  01C9               	clrf	LedMode_Func@breath_dir^(0+128)
  2140                           
  2141                           ;main.c: 449: breath_cnt = 0;
  2142  034F  01B0               	clrf	LedMode_Func@breath_cnt^(0+128)
  2143                           
  2144                           ;main.c: 450: }
  2145  0350  0008               	return
  2146  0351                     l5328:	
  2147                           
  2148                           ;main.c: 451: else
  2149                           ;main.c: 452: {
  2150                           ;main.c: 458: if(disp_level >= 2) { (PORTA4 = 0); }
  2151  0351  3002               	movlw	2
  2152  0352  021A               	subwf	LedMode_Func@disp_level,w
  2153  0353  1C03               	btfss	3,0
  2154  0354  2B57               	goto	l5332
  2155  0355                     l5330:	
  2156  0355  1205               	bcf	5,4	;volatile
  2157  0356  2B5E               	goto	l5338
  2158  0357                     l5332:	
  2159                           
  2160                           ;main.c: 459: else if(disp_level == 1) { if(chg_pwm_cnt < breath_duty) (PORTA4 = 0); els
      +                          e (PORTA4 = 1); }
  2161  0357  0B1A               	decfsz	LedMode_Func@disp_level,w
  2162  0358  2B5D               	goto	l1084
  2163  0359  081B               	movf	LedMode_Func@breath_duty,w
  2164  035A  021C               	subwf	LedMode_Func@chg_pwm_cnt,w
  2165  035B  1C03               	btfss	3,0
  2166  035C  2B55               	goto	l5330
  2167  035D                     l1084:	
  2168  035D  1605               	bsf	5,4	;volatile
  2169  035E                     l5338:	
  2170                           
  2171                           ;main.c: 463: if(disp_level >= 3) { (PORTA6 = 0); }
  2172  035E  3003               	movlw	3
  2173  035F  021A               	subwf	LedMode_Func@disp_level,w
  2174  0360  1C03               	btfss	3,0
  2175  0361  2B64               	goto	l5342
  2176  0362                     l5340:	
  2177  0362  1305               	bcf	5,6	;volatile
  2178  0363  2B6D               	goto	l5348
  2179  0364                     l5342:	
  2180                           
  2181                           ;main.c: 464: else if(disp_level == 2) { if(chg_pwm_cnt < breath_duty) (PORTA6 = 0); els
      +                          e (PORTA6 = 1); }
  2182  0364  3002               	movlw	2
  2183  0365  061A               	xorwf	LedMode_Func@disp_level,w
  2184  0366  1D03               	btfss	3,2
  2185  0367  2B6C               	goto	l1090
  2186  0368  081B               	movf	LedMode_Func@breath_duty,w
  2187  0369  021C               	subwf	LedMode_Func@chg_pwm_cnt,w
  2188  036A  1C03               	btfss	3,0
  2189  036B  2B62               	goto	l5340
  2190  036C                     l1090:	
  2191  036C  1705               	bsf	5,6	;volatile
  2192  036D                     l5348:	
  2193                           
  2194                           ;main.c: 468: if(disp_level >= 4) { (PORTA7 = 0); }
  2195  036D  3004               	movlw	4
  2196  036E  021A               	subwf	LedMode_Func@disp_level,w
  2197  036F  1C03               	btfss	3,0
  2198  0370  2B73               	goto	l5352
  2199  0371                     l5350:	
  2200  0371  1385               	bcf	5,7	;volatile
  2201  0372  2B7C               	goto	l5358
  2202  0373                     l5352:	
  2203                           
  2204                           ;main.c: 469: else if(disp_level == 3) { if(chg_pwm_cnt < breath_duty) (PORTA7 = 0); els
      +                          e (PORTA7 = 1); }
  2205  0373  3003               	movlw	3
  2206  0374  061A               	xorwf	LedMode_Func@disp_level,w
  2207  0375  1D03               	btfss	3,2
  2208  0376  2B7B               	goto	l1096
  2209  0377  081B               	movf	LedMode_Func@breath_duty,w
  2210  0378  021C               	subwf	LedMode_Func@chg_pwm_cnt,w
  2211  0379  1C03               	btfss	3,0
  2212  037A  2B71               	goto	l5350
  2213  037B                     l1096:	
  2214  037B  1785               	bsf	5,7	;volatile
  2215  037C                     l5358:	
  2216                           
  2217                           ;main.c: 473: if(disp_level >= 5) { (PORTB0 = 0); }
  2218  037C  3005               	movlw	5
  2219  037D  021A               	subwf	LedMode_Func@disp_level,w
  2220  037E  1C03               	btfss	3,0
  2221  037F  2B82               	goto	l5362
  2222  0380                     l5360:	
  2223  0380  1006               	bcf	6,0	;volatile
  2224  0381  2B8B               	goto	l5368
  2225  0382                     l5362:	
  2226                           
  2227                           ;main.c: 474: else if(disp_level == 4) { if(chg_pwm_cnt < breath_duty) (PORTB0 = 0); els
      +                          e (PORTB0 = 1); }
  2228  0382  3004               	movlw	4
  2229  0383  061A               	xorwf	LedMode_Func@disp_level,w
  2230  0384  1D03               	btfss	3,2
  2231  0385  2B8A               	goto	l1102
  2232  0386  081B               	movf	LedMode_Func@breath_duty,w
  2233  0387  021C               	subwf	LedMode_Func@chg_pwm_cnt,w
  2234  0388  1C03               	btfss	3,0
  2235  0389  2B80               	goto	l5360
  2236  038A                     l1102:	
  2237  038A  1406               	bsf	6,0	;volatile
  2238  038B                     l5368:	
  2239                           
  2240                           ;main.c: 478: if(disp_level >= 6) { (PORTB1 = 0); }
  2241  038B  3006               	movlw	6
  2242  038C  021A               	subwf	LedMode_Func@disp_level,w
  2243  038D  1803               	btfsc	3,0
  2244  038E  2B94               	goto	l5370
  2245  038F  2B96               	goto	l5372
  2246  0390                     l5374:	
  2247  0390  081B               	movf	LedMode_Func@breath_duty,w
  2248  0391  021C               	subwf	LedMode_Func@chg_pwm_cnt,w
  2249  0392  1803               	btfsc	3,0
  2250  0393  2B9A               	goto	l1108
  2251  0394                     l5370:	
  2252  0394  1086               	bcf	6,1	;volatile
  2253  0395  0008               	return
  2254  0396                     l5372:	
  2255                           
  2256                           ;main.c: 479: else if(disp_level == 5) { if(chg_pwm_cnt < breath_duty) (PORTB1 = 0); els
      +                          e (PORTB1 = 1); }
  2257  0396  3005               	movlw	5
  2258  0397  061A               	xorwf	LedMode_Func@disp_level,w
  2259  0398  1903               	btfsc	3,2
  2260  0399  2B90               	goto	l5374
  2261  039A                     l1108:	
  2262  039A  1486               	bsf	6,1	;volatile
  2263  039B  0008               	return
  2264  039C                     l1068:	
  2265                           
  2266                           ;main.c: 483: }
  2267                           ;main.c: 486: if(B_OnOff_Flag && g_gear == 6)
  2268  039C  1F35               	btfss	_B_OnOff_Flag/(0+8),_B_OnOff_Flag& (0+7)
  2269  039D  2BC4               	goto	l1111
  2270  039E  3006               	movlw	6
  2271  039F  0622               	xorwf	_g_gear,w
  2272  03A0  1D03               	btfss	3,2
  2273  03A1  2BC4               	goto	l1111
  2274  03A2  3014               	movlw	20
  2275                           
  2276                           ;main.c: 487: {
  2277                           ;main.c: 488: breath_cnt++;
  2278  03A3  1683               	bsf	3,5	;RP0=1, select bank1
  2279  03A4  0AB0               	incf	LedMode_Func@breath_cnt^(0+128),f
  2280                           
  2281                           ;main.c: 489: if(breath_cnt >= 20)
  2282  03A5  0230               	subwf	LedMode_Func@breath_cnt^(0+128),w
  2283  03A6  1C03               	btfss	3,0
  2284  03A7  0008               	return
  2285                           
  2286                           ;main.c: 490: {
  2287                           ;main.c: 491: breath_cnt = 0;
  2288  03A8  01B0               	clrf	LedMode_Func@breath_cnt^(0+128)
  2289                           
  2290                           ;main.c: 492: if(breath_dir)
  2291  03A9  0849               	movf	LedMode_Func@breath_dir^(0+128),w
  2292  03AA  1903               	btfsc	3,2
  2293  03AB  2BB6               	goto	l5394
  2294                           
  2295                           ;main.c: 493: {
  2296                           ;main.c: 494: if(breath_duty < 50) breath_duty++;
  2297  03AC  3032               	movlw	50
  2298  03AD  1283               	bcf	3,5	;RP0=0, select bank0
  2299  03AE  021B               	subwf	LedMode_Func@breath_duty,w
  2300  03AF  1803               	btfsc	3,0
  2301  03B0  2BB3               	goto	l5392
  2302  03B1  0A9B               	incf	LedMode_Func@breath_duty,f
  2303  03B2  2BBF               	goto	l5398
  2304  03B3                     l5392:	
  2305                           
  2306                           ;main.c: 495: else breath_dir = 0;
  2307  03B3  1683               	bsf	3,5	;RP0=1, select bank1
  2308  03B4  01C9               	clrf	LedMode_Func@breath_dir^(0+128)
  2309  03B5  2BBF               	goto	l5398
  2310  03B6                     l5394:	
  2311                           
  2312                           ;main.c: 497: else
  2313                           ;main.c: 498: {
  2314                           ;main.c: 499: if(breath_duty > 0) breath_duty--;
  2315  03B6  1283               	bcf	3,5	;RP0=0, select bank0
  2316  03B7  081B               	movf	LedMode_Func@breath_duty,w
  2317  03B8  1903               	btfsc	3,2
  2318  03B9  2BBC               	goto	l1117
  2319  03BA  039B               	decf	LedMode_Func@breath_duty,f
  2320  03BB  2BBF               	goto	l5398
  2321  03BC                     l1117:	
  2322                           
  2323                           ;main.c: 500: else breath_dir = 1;
  2324  03BC  1683               	bsf	3,5	;RP0=1, select bank1
  2325  03BD  01C9               	clrf	LedMode_Func@breath_dir^(0+128)
  2326  03BE  0AC9               	incf	LedMode_Func@breath_dir^(0+128),f
  2327  03BF                     l5398:	
  2328                           
  2329                           ;main.c: 501: }
  2330                           ;main.c: 502: g_overclock_pwm = breath_duty;
  2331  03BF  1283               	bcf	3,5	;RP0=0, select bank0
  2332  03C0  081B               	movf	LedMode_Func@breath_duty,w
  2333  03C1  1683               	bsf	3,5	;RP0=1, select bank1
  2334  03C2  00B1               	movwf	_g_overclock_pwm^(0+128)
  2335  03C3  0008               	return
  2336  03C4                     l1111:	
  2337                           
  2338                           ;main.c: 505: }
  2339                           ;main.c: 508: if(!g_slave_charging && !g_slave_chargefull && g_gear != 6)
  2340  03C4  1E35               	btfss	_g_slave_charging/(0+8),_g_slave_charging& (0+7)
  2341  03C5  19B5               	btfsc	_g_slave_chargefull/(0+8),_g_slave_chargefull& (0+7)
  2342  03C6  2BD2               	goto	l5410
  2343  03C7  3006               	movlw	6
  2344  03C8  0622               	xorwf	_g_gear,w
  2345  03C9  1903               	btfsc	3,2
  2346  03CA  2BD2               	goto	l5410
  2347                           
  2348                           ;main.c: 509: {
  2349                           ;main.c: 510: breath_duty = 0;
  2350  03CB  019B               	clrf	LedMode_Func@breath_duty
  2351                           
  2352                           ;main.c: 511: breath_dir = 1;
  2353  03CC  1683               	bsf	3,5	;RP0=1, select bank1
  2354  03CD  01C9               	clrf	LedMode_Func@breath_dir^(0+128)
  2355  03CE  0AC9               	incf	LedMode_Func@breath_dir^(0+128),f
  2356                           
  2357                           ;main.c: 512: breath_cnt = 0;
  2358  03CF  01B0               	clrf	LedMode_Func@breath_cnt^(0+128)
  2359                           
  2360                           ;main.c: 513: chg_pwm_cnt = 0;
  2361  03D0  1283               	bcf	3,5	;RP0=0, select bank0
  2362  03D1  019C               	clrf	LedMode_Func@chg_pwm_cnt
  2363  03D2                     l5410:	
  2364                           
  2365                           ;main.c: 514: }
  2366                           ;main.c: 517: if(!B_OnOff_Flag && g_offshow_flag)
  2367  03D2  1F35               	btfss	_B_OnOff_Flag/(0+8),_B_OnOff_Flag& (0+7)
  2368  03D3  1C35               	btfss	_g_offshow_flag/(0+8),_g_offshow_flag& (0+7)
  2369  03D4  2BD7               	goto	l1120
  2370                           
  2371                           ;main.c: 518: {
  2372                           ;main.c: 519: show_gear_led(level);
  2373  03D5  081D               	movf	_level,w
  2374  03D6  2F4C               	ljmp	_show_gear_led
  2375  03D7                     l1120:	
  2376                           
  2377                           ;main.c: 521: }
  2378                           ;main.c: 524: if(B_OnOff_Flag && g_warn_flash > 0)
  2379  03D7  1F35               	btfss	_B_OnOff_Flag/(0+8),_B_OnOff_Flag& (0+7)
  2380  03D8  2BDC               	goto	l1121
  2381  03D9  0820               	movf	_g_warn_flash,w
  2382  03DA  1D03               	btfss	3,2
  2383  03DB  0008               	return
  2384  03DC                     l1121:	
  2385                           
  2386                           ;main.c: 528: if(B_OnOff_Flag)
  2387  03DC  1F35               	btfss	_B_OnOff_Flag/(0+8),_B_OnOff_Flag& (0+7)
  2388  03DD  2B09               	goto	l5276
  2389                           
  2390                           ;main.c: 529: {
  2391                           ;main.c: 530: show_gear_led(g_gear);
  2392  03DE  0822               	movf	_g_gear,w
  2393  03DF  2F4C               	ljmp	_show_gear_led
  2394  03E0                     __end_of_LedMode_Func:	
  2395                           
  2396                           	psect	text11
  2397  061A                     __ptext11:	
  2398  061A                     _Key_Func:	
  2399 ;; *************** function _Key_Func *****************
  2400 ;; Defined at:
  2401 ;;		line 737 in file "main.c"
  2402 ;; Parameters:    Size  Location     Type
  2403 ;;		None
  2404 ;; Auto vars:     Size  Location     Type
  2405 ;;		None
  2406 ;; Return value:  Size  Location     Type
  2407 ;;                  1    wreg      void 
  2408 ;; Registers used:
  2409 ;;		wreg, status,2, status,0
  2410 ;; Tracked objects:
  2411 ;;		On entry : 0/100
  2412 ;;		On exit  : 0/0
  2413 ;;		Unchanged: 0/0
  2414 ;; Data sizes:     COMMON   BANK0   BANK1
  2415 ;;      Params:         0       0       0
  2416 ;;      Locals:         0       0       0
  2417 ;;      Temps:          0       0       0
  2418 ;;      Totals:         0       0       0
  2419 ;;Total ram usage:        0 bytes
  2420 ;; Hardware stack levels used:    1
  2421 ;; Hardware stack levels required when called:    3
  2422 ;; This function calls:
  2423 ;;		Nothing
  2424 ;; This function is called by:
  2425 ;;		_main
  2426 ;; This function uses a non-reentrant model
  2427 ;;
  2428                           ;psect for function _Key_Func
  2429                           
  2430                           
  2431                           ;main.c: 739: static unsigned char key1_time1 = 0;
  2432                           ;main.c: 740: static unsigned char key1_time2 = 0;
  2433                           ;main.c: 741: static unsigned char key2_time1 = 0;
  2434                           ;main.c: 742: static unsigned char key2_time2 = 0;
  2435                           ;main.c: 744: if(!PORTA2)
  2436                           ;incstack = 0
  2437                           ; Regs used in _Key_Func: [wreg+status,2+status,0]
  2438  061A  1283               	bcf	3,5	;RP0=0, select bank0
  2439  061B  1905               	btfsc	5,2	;volatile
  2440  061C  2E28               	goto	l4216
  2441  061D  300A               	movlw	10
  2442                           
  2443                           ;main.c: 745: {
  2444                           ;main.c: 746: key1_time2 = 0;
  2445  061E  1683               	bsf	3,5	;RP0=1, select bank1
  2446  061F  01AA               	clrf	Key_Func@key1_time2^(0+128)
  2447                           
  2448                           ;main.c: 747: key1_time1 ++;
  2449  0620  0AAB               	incf	Key_Func@key1_time1^(0+128),f
  2450                           
  2451                           ;main.c: 748: if(key1_time1 >= 10)
  2452  0621  022B               	subwf	Key_Func@key1_time1^(0+128),w
  2453  0622  1C03               	btfss	3,0
  2454  0623  2E32               	goto	l4226
  2455                           
  2456                           ;main.c: 749: {
  2457                           ;main.c: 750: key1_time1 = 0;
  2458  0624  01AB               	clrf	Key_Func@key1_time1^(0+128)
  2459                           
  2460                           ;main.c: 751: DIY_Flag1.OnrBit.b1 = 1;
  2461  0625  1283               	bcf	3,5	;RP0=0, select bank0
  2462  0626  14A3               	bsf	_DIY_Flag1,1
  2463  0627  2E32               	goto	l4226
  2464  0628                     l4216:	
  2465  0628  300A               	movlw	10
  2466                           
  2467                           ;main.c: 754: else
  2468                           ;main.c: 755: {
  2469                           ;main.c: 757: key1_time1 = 0;
  2470  0629  1683               	bsf	3,5	;RP0=1, select bank1
  2471  062A  01AB               	clrf	Key_Func@key1_time1^(0+128)
  2472                           
  2473                           ;main.c: 758: key1_time2 ++;
  2474  062B  0AAA               	incf	Key_Func@key1_time2^(0+128),f
  2475                           
  2476                           ;main.c: 759: if(key1_time2 >= 10)
  2477  062C  022A               	subwf	Key_Func@key1_time2^(0+128),w
  2478  062D  1C03               	btfss	3,0
  2479  062E  2E32               	goto	l4226
  2480                           
  2481                           ;main.c: 760: {
  2482                           ;main.c: 761: key1_time2 = 0;
  2483  062F  01AA               	clrf	Key_Func@key1_time2^(0+128)
  2484                           
  2485                           ;main.c: 762: DIY_Flag1.OnrBit.b1 = 0;
  2486  0630  1283               	bcf	3,5	;RP0=0, select bank0
  2487  0631  10A3               	bcf	_DIY_Flag1,1
  2488  0632                     l4226:	
  2489                           
  2490                           ;main.c: 763: }
  2491                           ;main.c: 764: }
  2492                           ;main.c: 766: if(!PORTA1)
  2493  0632  1283               	bcf	3,5	;RP0=0, select bank0
  2494  0633  1885               	btfsc	5,1	;volatile
  2495  0634  2E40               	goto	l4238
  2496  0635  300A               	movlw	10
  2497                           
  2498                           ;main.c: 767: {
  2499                           ;main.c: 768: key2_time2 = 0;
  2500  0636  1683               	bsf	3,5	;RP0=1, select bank1
  2501  0637  01A8               	clrf	Key_Func@key2_time2^(0+128)
  2502                           
  2503                           ;main.c: 769: key2_time1 ++;
  2504  0638  0AA9               	incf	Key_Func@key2_time1^(0+128),f
  2505                           
  2506                           ;main.c: 770: if(key2_time1 >= 10)
  2507  0639  0229               	subwf	Key_Func@key2_time1^(0+128),w
  2508  063A  1C03               	btfss	3,0
  2509  063B  0008               	return
  2510                           
  2511                           ;main.c: 771: {
  2512                           ;main.c: 772: key2_time1 = 0;
  2513  063C  01A9               	clrf	Key_Func@key2_time1^(0+128)
  2514                           
  2515                           ;main.c: 773: DIY_Flag1.OnrBit.b2 = 1;
  2516  063D  1283               	bcf	3,5	;RP0=0, select bank0
  2517  063E  1523               	bsf	_DIY_Flag1,2
  2518  063F  0008               	return
  2519  0640                     l4238:	
  2520  0640  300A               	movlw	10
  2521                           
  2522                           ;main.c: 776: else
  2523                           ;main.c: 777: {
  2524                           ;main.c: 779: key2_time1 = 0;
  2525  0641  1683               	bsf	3,5	;RP0=1, select bank1
  2526  0642  01A9               	clrf	Key_Func@key2_time1^(0+128)
  2527                           
  2528                           ;main.c: 780: key2_time2 ++;
  2529  0643  0AA8               	incf	Key_Func@key2_time2^(0+128),f
  2530                           
  2531                           ;main.c: 781: if(key2_time2 >= 10)
  2532  0644  0228               	subwf	Key_Func@key2_time2^(0+128),w
  2533  0645  1C03               	btfss	3,0
  2534  0646  0008               	return
  2535                           
  2536                           ;main.c: 782: {
  2537                           ;main.c: 783: key2_time2 = 0;
  2538  0647  01A8               	clrf	Key_Func@key2_time2^(0+128)
  2539                           
  2540                           ;main.c: 784: DIY_Flag1.OnrBit.b2 = 0;
  2541  0648  1283               	bcf	3,5	;RP0=0, select bank0
  2542  0649  1123               	bcf	_DIY_Flag1,2
  2543  064A  0008               	return
  2544  064B                     __end_of_Key_Func:	
  2545                           
  2546                           	psect	text12
  2547  001A                     __ptext12:	
  2548  001A                     _Key_Application:	
  2549 ;; *************** function _Key_Application *****************
  2550 ;; Defined at:
  2551 ;;		line 836 in file "main.c"
  2552 ;; Parameters:    Size  Location     Type
  2553 ;;		None
  2554 ;; Auto vars:     Size  Location     Type
  2555 ;;  cur             1    6[BANK1 ] unsigned char 
  2556 ;;  edge            1    5[BANK1 ] unsigned char 
  2557 ;; Return value:  Size  Location     Type
  2558 ;;                  1    wreg      void 
  2559 ;; Registers used:
  2560 ;;		wreg, fsr0l, fsr0h, status,2, status,0, pclath, cstack
  2561 ;; Tracked objects:
  2562 ;;		On entry : 0/100
  2563 ;;		On exit  : 100/0
  2564 ;;		Unchanged: 0/0
  2565 ;; Data sizes:     COMMON   BANK0   BANK1
  2566 ;;      Params:         0       0       0
  2567 ;;      Locals:         0       0       3
  2568 ;;      Temps:          0       0       0
  2569 ;;      Totals:         0       0       3
  2570 ;;Total ram usage:        3 bytes
  2571 ;; Hardware stack levels used:    1
  2572 ;; Hardware stack levels required when called:    5
  2573 ;; This function calls:
  2574 ;;		_Battery_Update
  2575 ;;		_set_fan
  2576 ;;		_show_gear_led
  2577 ;;		_trigger_warn
  2578 ;;		_warn_flash_proc
  2579 ;; This function is called by:
  2580 ;;		_main
  2581 ;; This function uses a non-reentrant model
  2582 ;;
  2583                           ;psect for function _Key_Application
  2584                           
  2585                           
  2586                           ;main.c: 838: unsigned char edge;
  2587                           ;main.c: 839: unsigned char cur;
  2588                           ;main.c: 840: static unsigned char off_key_prev = 0;
  2589                           ;main.c: 841: warn_flash_proc();
  2590                           ;incstack = 0
  2591                           ; Regs used in _Key_Application: [wreg-fsr0h+status,2+status,0+pclath+cstack]
  2592  001A  267B               	fcall	_warn_flash_proc
  2593                           
  2594                           ;main.c: 844: if(g_vdd_adc <= 2363u)
  2595  001B  3009               	movlw	9
  2596  001C  1283               	bcf	3,5	;RP0=0, select bank0
  2597  001D  0211               	subwf	_g_vdd_adc+1,w
  2598  001E  303C               	movlw	60
  2599  001F  1903               	btfsc	3,2
  2600  0020  0210               	subwf	_g_vdd_adc,w
  2601  0021  1803               	btfsc	3,0
  2602  0022  2826               	goto	l5432
  2603                           
  2604                           ;main.c: 845: {
  2605                           ;main.c: 846: g_battery_empty = 1;
  2606  0023  01A1               	clrf	_g_battery_empty
  2607  0024  0AA1               	incf	_g_battery_empty,f
  2608                           
  2609                           ;main.c: 847: }
  2610  0025  282D               	goto	l5436
  2611  0026                     l5432:	
  2612                           
  2613                           ;main.c: 848: else if(g_vdd_adc >= 2387u)
  2614  0026  3009               	movlw	9
  2615  0027  0211               	subwf	_g_vdd_adc+1,w
  2616  0028  3053               	movlw	83
  2617  0029  1903               	btfsc	3,2
  2618  002A  0210               	subwf	_g_vdd_adc,w
  2619  002B  1803               	btfsc	3,0
  2620                           
  2621                           ;main.c: 849: {
  2622                           ;main.c: 850: g_battery_empty = 0;
  2623  002C  01A1               	clrf	_g_battery_empty
  2624  002D                     l5436:	
  2625                           
  2626                           ;main.c: 851: }
  2627                           ;main.c: 853: if(g_battery_empty)
  2628  002D  0821               	movf	_g_battery_empty,w
  2629  002E  1903               	btfsc	3,2
  2630  002F  288F               	goto	l1248
  2631  0030  3000               	movlw	0
  2632                           
  2633                           ;main.c: 854: {
  2634                           ;main.c: 855: B_OnOff_Flag = 0;
  2635  0031  1335               	bcf	_B_OnOff_Flag/(0+8),_B_OnOff_Flag& (0+7)
  2636                           
  2637                           ;main.c: 856: set_fan(0);
  2638  0032  2763               	fcall	_set_fan
  2639                           
  2640                           ;main.c: 857: (PORTB1 = 1);
  2641  0033  1283               	bcf	3,5	;RP0=0, select bank0
  2642                           
  2643                           ;main.c: 858: (PORTB0 = 1);
  2644                           ;main.c: 859: (PORTA7 = 1);
  2645                           ;main.c: 860: (PORTA6 = 1);
  2646                           ;main.c: 861: (PORTA4 = 1);
  2647  0034  218C               	fcall	PL2	;call to abstracted procedure
  2648                           
  2649                           ;main.c: 862: g_offshow_flag = 0;
  2650                           ;main.c: 863: g_offshow_ms = 0;
  2651                           ;main.c: 864: g_warn_flash = 0;
  2652  0035  219B               	fcall	PL12	;call to abstracted procedure
  2653  0036  01A0               	clrf	_g_warn_flash
  2654                           
  2655                           ;main.c: 865: g_gear = 0;
  2656  0037  01A2               	clrf	_g_gear
  2657  0038  2888               	goto	l5460
  2658  0039                     l5468:	
  2659                           
  2660                           ;main.c: 876: {
  2661                           ;main.c: 877: g_pwr_delay_ms = 0;
  2662  0039  1683               	bsf	3,5	;RP0=1, select bank1
  2663  003A  019C               	clrf	_g_pwr_delay_ms^(0+128)
  2664  003B  019D               	clrf	(_g_pwr_delay_ms+1)^(0+128)
  2665                           
  2666                           ;main.c: 878: edge = 0;
  2667  003C  01C1               	clrf	Key_Application@edge^(0+128)
  2668                           
  2669                           ;main.c: 879: if(B_KEYHX_Flag)
  2670  003D  1283               	bcf	3,5	;RP0=0, select bank0
  2671  003E  1D35               	btfss	_B_KEYHX_Flag/(0+8),_B_KEYHX_Flag& (0+7)
  2672  003F  2845               	goto	l1251
  2673                           
  2674                           ;main.c: 880: {
  2675                           ;main.c: 881: edge = 1;
  2676  0040  1683               	bsf	3,5	;RP0=1, select bank1
  2677  0041  01C1               	clrf	Key_Application@edge^(0+128)
  2678  0042  0AC1               	incf	Key_Application@edge^(0+128),f
  2679                           
  2680                           ;main.c: 882: B_KEYHX_Flag = 0;
  2681  0043  1283               	bcf	3,5	;RP0=0, select bank0
  2682  0044  1135               	bcf	_B_KEYHX_Flag/(0+8),_B_KEYHX_Flag& (0+7)
  2683  0045                     l1251:	
  2684                           
  2685                           ;main.c: 883: }
  2686                           ;main.c: 884: cur = DIY_Flag1.OnrBit.b1 || DIY_Flag1.OnrBit.b2;
  2687  0045  1683               	bsf	3,5	;RP0=1, select bank1
  2688  0046  01C0               	clrf	_Key_Application$609^(0+128)
  2689  0047  0AC0               	incf	_Key_Application$609^(0+128),f
  2690  0048  1283               	bcf	3,5	;RP0=0, select bank0
  2691  0049  1CA3               	btfss	_DIY_Flag1,1
  2692  004A  1923               	btfsc	_DIY_Flag1,2
  2693  004B  284E               	goto	l5478
  2694  004C  1683               	bsf	3,5	;RP0=1, select bank1
  2695  004D  01C0               	clrf	_Key_Application$609^(0+128)
  2696  004E                     l5478:	
  2697  004E  1683               	bsf	3,5	;RP0=1, select bank1
  2698  004F  0840               	movf	_Key_Application$609^(0+128),w
  2699  0050  00C2               	movwf	Key_Application@cur^(0+128)
  2700                           
  2701                           ;main.c: 885: if(cur && !off_key_prev)
  2702  0051  0842               	movf	Key_Application@cur^(0+128),w
  2703  0052  1903               	btfsc	3,2
  2704  0053  2859               	goto	l5486
  2705  0054  0825               	movf	Key_Application@off_key_prev^(0+128),w
  2706  0055  1D03               	btfss	3,2
  2707  0056  2859               	goto	l5486
  2708                           
  2709                           ;main.c: 886: edge = 1;
  2710  0057  01C1               	clrf	Key_Application@edge^(0+128)
  2711  0058  0AC1               	incf	Key_Application@edge^(0+128),f
  2712  0059                     l5486:	
  2713                           
  2714                           ;main.c: 887: off_key_prev = cur;
  2715  0059  0842               	movf	Key_Application@cur^(0+128),w
  2716  005A  00A5               	movwf	Key_Application@off_key_prev^(0+128)
  2717                           
  2718                           ;main.c: 888: if(edge)
  2719  005B  0841               	movf	Key_Application@edge^(0+128),w
  2720  005C  1903               	btfsc	3,2
  2721  005D  2867               	goto	l5498
  2722                           
  2723                           ;main.c: 889: {
  2724                           ;main.c: 890: Battery_Update();
  2725  005E  23E0               	fcall	_Battery_Update
  2726                           
  2727                           ;main.c: 891: g_offshow_flag = 1;
  2728  005F  1283               	bcf	3,5	;RP0=0, select bank0
  2729  0060  1435               	bsf	_g_offshow_flag/(0+8),_g_offshow_flag& (0+7)
  2730                           
  2731                           ;main.c: 892: g_offshow_ms = 0;
  2732  0061  1683               	bsf	3,5	;RP0=1, select bank1
  2733  0062  019A               	clrf	_g_offshow_ms^(0+128)
  2734  0063  019B               	clrf	(_g_offshow_ms+1)^(0+128)
  2735                           
  2736                           ;main.c: 893: show_gear_led(level);
  2737  0064  1283               	bcf	3,5	;RP0=0, select bank0
  2738  0065  081D               	movf	_level,w
  2739  0066  274C               	fcall	_show_gear_led
  2740  0067                     l5498:	
  2741                           
  2742                           ;main.c: 894: }
  2743                           ;main.c: 895: if(g_offshow_flag)
  2744  0067  1283               	bcf	3,5	;RP0=0, select bank0
  2745  0068  1C35               	btfss	_g_offshow_flag/(0+8),_g_offshow_flag& (0+7)
  2746  0069  2878               	goto	l5518
  2747                           
  2748                           ;main.c: 896: {
  2749                           ;main.c: 897: g_offshow_ms++;
  2750  006A  1683               	bsf	3,5	;RP0=1, select bank1
  2751  006B  0A9A               	incf	_g_offshow_ms^(0+128),f
  2752  006C  1903               	btfsc	3,2
  2753  006D  0A9B               	incf	(_g_offshow_ms+1)^(0+128),f
  2754                           
  2755                           ;main.c: 898: if(g_offshow_ms >= 5000)
  2756  006E  3013               	movlw	19
  2757  006F  021B               	subwf	(_g_offshow_ms+1)^(0+128),w
  2758  0070  3088               	movlw	136
  2759  0071  1903               	btfsc	3,2
  2760  0072  021A               	subwf	_g_offshow_ms^(0+128),w
  2761                           
  2762                           ;main.c: 899: {
  2763                           ;main.c: 900: g_offshow_flag = 0;
  2764  0073  1283               	bcf	3,5	;RP0=0, select bank0
  2765  0074  1C03               	btfss	3,0
  2766  0075  2879               	goto	L2
  2767                           
  2768                           ;main.c: 901: g_offshow_ms = 0;
  2769                           ;main.c: 902: (PORTB1 = 1);
  2770  0076  219B               	fcall	PL12	;call to abstracted procedure
  2771                           
  2772                           ;main.c: 903: (PORTB0 = 1);
  2773                           ;main.c: 904: (PORTA7 = 1);
  2774                           ;main.c: 905: (PORTA6 = 1);
  2775                           ;main.c: 906: (PORTA4 = 1);
  2776  0077  218C               	fcall	PL2	;call to abstracted procedure
  2777  0078                     l5518:	
  2778                           
  2779                           ;main.c: 907: }
  2780                           ;main.c: 908: }
  2781                           ;main.c: 910: if(g_gear != 0)
  2782  0078  1283               	bcf	3,5	;RP0=0, select bank0
  2783  0079                     L2:	
  2784  0079  0822               	movf	_g_gear,w
  2785  007A  3000               	movlw	0
  2786  007B  1903               	btfsc	3,2
  2787  007C  2889               	goto	L3
  2788                           
  2789                           ;main.c: 911: {
  2790                           ;main.c: 912: g_gear = 0;
  2791  007D  01A2               	clrf	_g_gear
  2792                           
  2793                           ;main.c: 913: set_fan(0);
  2794  007E  2763               	fcall	_set_fan
  2795                           
  2796                           ;main.c: 914: (PORTB1 = 1);
  2797  007F  1283               	bcf	3,5	;RP0=0, select bank0
  2798                           
  2799                           ;main.c: 915: (PORTB0 = 1);
  2800                           ;main.c: 916: (PORTA7 = 1);
  2801                           ;main.c: 917: (PORTA6 = 1);
  2802                           ;main.c: 918: (PORTA4 = 1);
  2803  0080  218C               	fcall	PL2	;call to abstracted procedure
  2804                           
  2805                           ;main.c: 919: g_warn_flash = 0;
  2806  0081  01A0               	clrf	_g_warn_flash
  2807  0082  2888               	goto	l5460
  2808  0083                     l5546:	
  2809                           
  2810                           ;main.c: 932: {
  2811                           ;main.c: 933: g_pwr_delay_ms++;
  2812  0083  0A9C               	incf	_g_pwr_delay_ms^(0+128),f
  2813  0084  1903               	btfsc	3,2
  2814  0085  0A9D               	incf	(_g_pwr_delay_ms+1)^(0+128),f
  2815                           
  2816                           ;main.c: 934: (PORTB1 = 1);
  2817  0086  1283               	bcf	3,5	;RP0=0, select bank0
  2818                           
  2819                           ;main.c: 935: (PORTB0 = 1);
  2820                           ;main.c: 936: (PORTA7 = 1);
  2821                           ;main.c: 937: (PORTA6 = 1);
  2822                           ;main.c: 938: (PORTA4 = 1);
  2823  0087  218C               	fcall	PL2	;call to abstracted procedure
  2824  0088                     l5460:	
  2825                           
  2826                           ;main.c: 866: g_k1_prev = DIY_Flag1.OnrBit.b1;
  2827  0088  3000               	movlw	0
  2828  0089                     L3:	
  2829  0089  1283               	bcf	3,5	;RP0=0, select bank0
  2830                           
  2831                           ;main.c: 867: g_k2_prev = DIY_Flag1.OnrBit.b2;
  2832  008A  2192               	fcall	PL6	;call to abstracted procedure
  2833  008B                     l5464:	
  2834                           
  2835                           ;main.c: 868: g_k2_hold_ms = 0;
  2836  008B  1283               	bcf	3,5	;RP0=0, select bank0
  2837  008C  0194               	clrf	_g_k2_hold_ms
  2838  008D  0195               	clrf	_g_k2_hold_ms+1
  2839  008E  0008               	return
  2840  008F                     l1248:	
  2841                           
  2842                           ;main.c: 870: }
  2843                           ;main.c: 875: if(B_OnOff_Flag == 0)
  2844  008F  1F35               	btfss	_B_OnOff_Flag/(0+8),_B_OnOff_Flag& (0+7)
  2845  0090  2839               	goto	l5468
  2846                           
  2847                           ;main.c: 925: }
  2848                           ;main.c: 931: if(g_pwr_delay_ms < 1000)
  2849  0091  3003               	movlw	3
  2850  0092  1683               	bsf	3,5	;RP0=1, select bank1
  2851  0093  021D               	subwf	(_g_pwr_delay_ms+1)^(0+128),w
  2852  0094  30E8               	movlw	232
  2853  0095  1903               	btfsc	3,2
  2854  0096  021C               	subwf	_g_pwr_delay_ms^(0+128),w
  2855  0097  1C03               	btfss	3,0
  2856  0098  2883               	goto	l5546
  2857                           
  2858                           ;main.c: 943: }
  2859                           ;main.c: 946: if(g_slave_charging || g_slave_chargefull)
  2860  0099  1283               	bcf	3,5	;RP0=0, select bank0
  2861  009A  1A35               	btfsc	_g_slave_charging/(0+8),_g_slave_charging& (0+7)
  2862  009B  289E               	goto	l1262
  2863  009C  1DB5               	btfss	_g_slave_chargefull/(0+8),_g_slave_chargefull& (0+7)
  2864  009D  28BA               	goto	l5598
  2865  009E                     l1262:	
  2866  009E  3001               	movlw	1
  2867                           
  2868                           ;main.c: 947: {
  2869                           ;main.c: 948: g_gear = 1;
  2870  009F  01A2               	clrf	_g_gear
  2871  00A0  0AA2               	incf	_g_gear,f
  2872                           
  2873                           ;main.c: 949: set_fan(1);
  2874  00A1  2763               	fcall	_set_fan
  2875                           
  2876                           ;main.c: 950: g_offshow_flag = 0;
  2877  00A2  1283               	bcf	3,5	;RP0=0, select bank0
  2878  00A3  1035               	bcf	_g_offshow_flag/(0+8),_g_offshow_flag& (0+7)
  2879                           
  2880                           ;main.c: 952: if(g_warn_flash == 0)
  2881  00A4  0820               	movf	_g_warn_flash,w
  2882  00A5  1D03               	btfss	3,2
  2883  00A6  28A9               	goto	l5576
  2884                           
  2885                           ;main.c: 953: show_gear_led(1);
  2886  00A7  3001               	movlw	1
  2887  00A8  274C               	fcall	_show_gear_led
  2888  00A9                     l5576:	
  2889                           
  2890                           ;main.c: 956: if(DIY_Flag1.OnrBit.b2 && !g_k2_prev) trigger_warn(5);
  2891  00A9  1D23               	btfss	_DIY_Flag1,2
  2892  00AA  28B1               	goto	l5582
  2893  00AB  1683               	bsf	3,5	;RP0=1, select bank1
  2894  00AC  0833               	movf	_g_k2_prev^(0+128),w
  2895  00AD  1D03               	btfss	3,2
  2896  00AE  28B1               	goto	l5582
  2897  00AF  3005               	movlw	5
  2898  00B0  27E3               	fcall	_trigger_warn
  2899  00B1                     l5582:	
  2900                           
  2901                           ;main.c: 957: if(DIY_Flag1.OnrBit.b1 && !g_k1_prev) trigger_warn(5);
  2902  00B1  1283               	bcf	3,5	;RP0=0, select bank0
  2903  00B2  1CA3               	btfss	_DIY_Flag1,1
  2904  00B3  2888               	goto	l5460
  2905  00B4  081E               	movf	_g_k1_prev,w
  2906  00B5  1D03               	btfss	3,2
  2907  00B6  2888               	goto	l5460
  2908  00B7  3005               	movlw	5
  2909  00B8  27E3               	fcall	_trigger_warn
  2910  00B9  2888               	goto	l5460
  2911  00BA                     l5598:	
  2912                           
  2913                           ;main.c: 964: else
  2914                           ;main.c: 965: {
  2915                           ;main.c: 967: if(g_gear == 0)
  2916  00BA  0822               	movf	_g_gear,w
  2917  00BB  1D03               	btfss	3,2
  2918  00BC  28C3               	goto	l5606
  2919  00BD  3001               	movlw	1
  2920                           
  2921                           ;main.c: 968: {
  2922                           ;main.c: 969: g_gear = 1;
  2923  00BE  01A2               	clrf	_g_gear
  2924  00BF  0AA2               	incf	_g_gear,f
  2925                           
  2926                           ;main.c: 970: set_fan(1);
  2927  00C0  2763               	fcall	_set_fan
  2928                           
  2929                           ;main.c: 971: show_gear_led(1);
  2930  00C1  3001               	movlw	1
  2931  00C2  274C               	fcall	_show_gear_led
  2932  00C3                     l5606:	
  2933                           
  2934                           ;main.c: 972: }
  2935                           ;main.c: 974: if(g_warn_flash > 0)
  2936  00C3  0820               	movf	_g_warn_flash,w
  2937  00C4  1903               	btfsc	3,2
  2938  00C5  28CC               	goto	l1268
  2939                           
  2940                           ;main.c: 975: {
  2941                           ;main.c: 976: g_k1_prev = DIY_Flag1.OnrBit.b1;
  2942  00C6  3000               	movlw	0
  2943                           
  2944                           ;main.c: 977: g_k2_prev = DIY_Flag1.OnrBit.b2;
  2945  00C7  2192               	fcall	PL6	;call to abstracted procedure
  2946                           
  2947                           ;main.c: 978: g_k1_hold_ms = 0;
  2948  00C8  1283               	bcf	3,5	;RP0=0, select bank0
  2949  00C9  0196               	clrf	_g_k1_hold_ms
  2950  00CA  0197               	clrf	_g_k1_hold_ms+1
  2951  00CB  288B               	goto	l5464
  2952  00CC                     l1268:	
  2953                           
  2954                           ;main.c: 981: }
  2955                           ;main.c: 984: if(DIY_Flag1.OnrBit.b2)
  2956  00CC  1D23               	btfss	_DIY_Flag1,2
  2957  00CD  2907               	goto	l5642
  2958                           
  2959                           ;main.c: 985: {
  2960                           ;main.c: 986: g_k2_hold_ms++;
  2961  00CE  0A94               	incf	_g_k2_hold_ms,f
  2962  00CF  1903               	btfsc	3,2
  2963  00D0  0A95               	incf	_g_k2_hold_ms+1,f
  2964                           
  2965                           ;main.c: 988: if(g_k2_hold_ms == 500 || g_k2_hold_ms == 600 || g_k2_hold_ms == 700 || g_
      +                          k2_hold_ms == 800 || g_k2_hold_ms == 900)
  2966  00D1  30F4               	movlw	244
  2967  00D2  0614               	xorwf	_g_k2_hold_ms,w
  2968  00D3  1903               	btfsc	3,2
  2969  00D4  0315               	decf	_g_k2_hold_ms+1,w
  2970  00D5  1903               	btfsc	3,2
  2971  00D6  28F3               	goto	l5628
  2972  00D7  3058               	movlw	88
  2973  00D8  0614               	xorwf	_g_k2_hold_ms,w
  2974  00D9  3002               	movlw	2
  2975  00DA  1903               	btfsc	3,2
  2976  00DB  0615               	xorwf	_g_k2_hold_ms+1,w
  2977  00DC  1903               	btfsc	3,2
  2978  00DD  28F3               	goto	l5628
  2979  00DE  30BC               	movlw	188
  2980  00DF  0614               	xorwf	_g_k2_hold_ms,w
  2981  00E0  3002               	movlw	2
  2982  00E1  1903               	btfsc	3,2
  2983  00E2  0615               	xorwf	_g_k2_hold_ms+1,w
  2984  00E3  1903               	btfsc	3,2
  2985  00E4  28F3               	goto	l5628
  2986  00E5  3020               	movlw	32
  2987  00E6  0614               	xorwf	_g_k2_hold_ms,w
  2988  00E7  3003               	movlw	3
  2989  00E8  1903               	btfsc	3,2
  2990  00E9  0615               	xorwf	_g_k2_hold_ms+1,w
  2991  00EA  1903               	btfsc	3,2
  2992  00EB  28F3               	goto	l5628
  2993  00EC  3084               	movlw	132
  2994  00ED  0614               	xorwf	_g_k2_hold_ms,w
  2995  00EE  3003               	movlw	3
  2996  00EF  1903               	btfsc	3,2
  2997  00F0  0615               	xorwf	_g_k2_hold_ms+1,w
  2998  00F1  1D03               	btfss	3,2
  2999  00F2  2932               	goto	l5668
  3000  00F3                     l5628:	
  3001                           
  3002                           ;main.c: 989: {
  3003                           ;main.c: 990: if(g_gear < 5)
  3004  00F3  3005               	movlw	5
  3005  00F4  0222               	subwf	_g_gear,w
  3006  00F5  1803               	btfsc	3,0
  3007  00F6  28FE               	goto	l5636
  3008                           
  3009                           ;main.c: 991: {
  3010                           ;main.c: 992: g_gear++;
  3011  00F7  0AA2               	incf	_g_gear,f
  3012                           
  3013                           ;main.c: 993: set_fan(g_gear);
  3014  00F8  0822               	movf	_g_gear,w
  3015  00F9  2763               	fcall	_set_fan
  3016                           
  3017                           ;main.c: 994: show_gear_led(g_gear);
  3018  00FA  1283               	bcf	3,5	;RP0=0, select bank0
  3019  00FB  0822               	movf	_g_gear,w
  3020  00FC  274C               	fcall	_show_gear_led
  3021                           
  3022                           ;main.c: 995: }
  3023  00FD  2932               	goto	l5668
  3024  00FE                     l5636:	
  3025                           
  3026                           ;main.c: 996: else if(g_gear == 5)
  3027  00FE  3005               	movlw	5
  3028  00FF  0622               	xorwf	_g_gear,w
  3029  0100  1D03               	btfss	3,2
  3030  0101  2932               	goto	l5668
  3031                           
  3032                           ;main.c: 997: {
  3033                           ;main.c: 998: g_gear = 6;
  3034  0102  3006               	movlw	6
  3035  0103  00A2               	movwf	_g_gear
  3036                           
  3037                           ;main.c: 999: set_fan(6);
  3038  0104  3006               	movlw	6
  3039  0105  2763               	fcall	_set_fan
  3040                           
  3041                           ;main.c: 1000: }
  3042                           ;main.c: 1001: }
  3043                           ;main.c: 1002: }
  3044  0106  2932               	goto	l5668
  3045  0107                     l5642:	
  3046                           
  3047                           ;main.c: 1003: else
  3048                           ;main.c: 1004: {
  3049                           ;main.c: 1006: if(g_k2_prev)
  3050  0107  1683               	bsf	3,5	;RP0=1, select bank1
  3051  0108  0833               	movf	_g_k2_prev^(0+128),w
  3052  0109  1903               	btfsc	3,2
  3053  010A  292F               	goto	l5666
  3054                           
  3055                           ;main.c: 1007: {
  3056                           ;main.c: 1008: if(g_gear == 6)
  3057  010B  3006               	movlw	6
  3058  010C  1283               	bcf	3,5	;RP0=0, select bank0
  3059  010D  0622               	xorwf	_g_gear,w
  3060  010E  1D03               	btfss	3,2
  3061  010F  2917               	goto	l5652
  3062                           
  3063                           ;main.c: 1009: {
  3064                           ;main.c: 1011: g_gear = 5;
  3065  0110  3005               	movlw	5
  3066  0111  00A2               	movwf	_g_gear
  3067                           
  3068                           ;main.c: 1012: set_fan(5);
  3069  0112  3005               	movlw	5
  3070  0113  2763               	fcall	_set_fan
  3071                           
  3072                           ;main.c: 1013: show_gear_led(5);
  3073  0114  3005               	movlw	5
  3074  0115  274C               	fcall	_show_gear_led
  3075                           
  3076                           ;main.c: 1014: }
  3077  0116  292F               	goto	l5666
  3078  0117                     l5652:	
  3079                           
  3080                           ;main.c: 1015: else if(g_k2_hold_ms < 500)
  3081  0117  3001               	movlw	1
  3082  0118  0215               	subwf	_g_k2_hold_ms+1,w
  3083  0119  30F4               	movlw	244
  3084  011A  1903               	btfsc	3,2
  3085  011B  0214               	subwf	_g_k2_hold_ms,w
  3086  011C  1803               	btfsc	3,0
  3087  011D  292F               	goto	l5666
  3088                           
  3089                           ;main.c: 1016: {
  3090                           ;main.c: 1018: if(g_gear < 5)
  3091  011E  3005               	movlw	5
  3092  011F  0222               	subwf	_g_gear,w
  3093  0120  1803               	btfsc	3,0
  3094  0121  2929               	goto	l5662
  3095                           
  3096                           ;main.c: 1019: {
  3097                           ;main.c: 1020: g_gear++;
  3098  0122  0AA2               	incf	_g_gear,f
  3099                           
  3100                           ;main.c: 1021: set_fan(g_gear);
  3101  0123  0822               	movf	_g_gear,w
  3102  0124  2763               	fcall	_set_fan
  3103                           
  3104                           ;main.c: 1022: show_gear_led(g_gear);
  3105  0125  1283               	bcf	3,5	;RP0=0, select bank0
  3106  0126  0822               	movf	_g_gear,w
  3107  0127  274C               	fcall	_show_gear_led
  3108                           
  3109                           ;main.c: 1023: }
  3110  0128  292F               	goto	l5666
  3111  0129                     l5662:	
  3112                           
  3113                           ;main.c: 1024: else if(g_gear == 5)
  3114  0129  3005               	movlw	5
  3115  012A  0622               	xorwf	_g_gear,w
  3116  012B  1D03               	btfss	3,2
  3117  012C  292F               	goto	l5666
  3118                           
  3119                           ;main.c: 1025: {
  3120                           ;main.c: 1026: trigger_warn(1);
  3121  012D  3001               	movlw	1
  3122  012E  27E3               	fcall	_trigger_warn
  3123  012F                     l5666:	
  3124                           
  3125                           ;main.c: 1027: }
  3126                           ;main.c: 1028: }
  3127                           ;main.c: 1029: }
  3128                           ;main.c: 1030: g_k2_hold_ms = 0;
  3129  012F  1283               	bcf	3,5	;RP0=0, select bank0
  3130  0130  0194               	clrf	_g_k2_hold_ms
  3131  0131  0195               	clrf	_g_k2_hold_ms+1
  3132  0132                     l5668:	
  3133                           
  3134                           ;main.c: 1031: }
  3135                           ;main.c: 1032: g_k2_prev = DIY_Flag1.OnrBit.b2;
  3136  0132  3000               	movlw	0
  3137  0133  1283               	bcf	3,5	;RP0=0, select bank0
  3138  0134  1923               	btfsc	_DIY_Flag1,2
  3139  0135  3001               	movlw	1
  3140  0136  1683               	bsf	3,5	;RP0=1, select bank1
  3141  0137  00B3               	movwf	_g_k2_prev^(0+128)
  3142                           
  3143                           ;main.c: 1035: if(DIY_Flag1.OnrBit.b1)
  3144  0138  1283               	bcf	3,5	;RP0=0, select bank0
  3145  0139  1CA3               	btfss	_DIY_Flag1,1
  3146  013A  296B               	goto	l5692
  3147                           
  3148                           ;main.c: 1036: {
  3149                           ;main.c: 1037: g_k1_hold_ms++;
  3150  013B  0A96               	incf	_g_k1_hold_ms,f
  3151  013C  1903               	btfsc	3,2
  3152  013D  0A97               	incf	_g_k1_hold_ms+1,f
  3153                           
  3154                           ;main.c: 1039: if(g_k1_hold_ms == 500 || g_k1_hold_ms == 600 || g_k1_hold_ms == 700 || g
      +                          _k1_hold_ms == 800 || g_k1_hold_ms == 900)
  3155  013E  30F4               	movlw	244
  3156  013F  0616               	xorwf	_g_k1_hold_ms,w
  3157  0140  1903               	btfsc	3,2
  3158  0141  0317               	decf	_g_k1_hold_ms+1,w
  3159  0142  1903               	btfsc	3,2
  3160  0143  2960               	goto	l5684
  3161  0144  3058               	movlw	88
  3162  0145  0616               	xorwf	_g_k1_hold_ms,w
  3163  0146  3002               	movlw	2
  3164  0147  1903               	btfsc	3,2
  3165  0148  0617               	xorwf	_g_k1_hold_ms+1,w
  3166  0149  1903               	btfsc	3,2
  3167  014A  2960               	goto	l5684
  3168  014B  30BC               	movlw	188
  3169  014C  0616               	xorwf	_g_k1_hold_ms,w
  3170  014D  3002               	movlw	2
  3171  014E  1903               	btfsc	3,2
  3172  014F  0617               	xorwf	_g_k1_hold_ms+1,w
  3173  0150  1903               	btfsc	3,2
  3174  0151  2960               	goto	l5684
  3175  0152  3020               	movlw	32
  3176  0153  0616               	xorwf	_g_k1_hold_ms,w
  3177  0154  3003               	movlw	3
  3178  0155  1903               	btfsc	3,2
  3179  0156  0617               	xorwf	_g_k1_hold_ms+1,w
  3180  0157  1903               	btfsc	3,2
  3181  0158  2960               	goto	l5684
  3182  0159  3084               	movlw	132
  3183  015A  0616               	xorwf	_g_k1_hold_ms,w
  3184  015B  3003               	movlw	3
  3185  015C  1903               	btfsc	3,2
  3186  015D  0617               	xorwf	_g_k1_hold_ms+1,w
  3187  015E  1D03               	btfss	3,2
  3188  015F  2987               	goto	l5710
  3189  0160                     l5684:	
  3190                           
  3191                           ;main.c: 1040: {
  3192                           ;main.c: 1041: if(g_gear > 1)
  3193  0160  3002               	movlw	2
  3194  0161  0222               	subwf	_g_gear,w
  3195  0162  1C03               	btfss	3,0
  3196  0163  2987               	goto	l5710
  3197                           
  3198                           ;main.c: 1042: {
  3199                           ;main.c: 1043: g_gear--;
  3200  0164  03A2               	decf	_g_gear,f
  3201                           
  3202                           ;main.c: 1044: set_fan(g_gear);
  3203  0165  0822               	movf	_g_gear,w
  3204  0166  2763               	fcall	_set_fan
  3205                           
  3206                           ;main.c: 1045: show_gear_led(g_gear);
  3207  0167  1283               	bcf	3,5	;RP0=0, select bank0
  3208  0168  0822               	movf	_g_gear,w
  3209  0169  274C               	fcall	_show_gear_led
  3210  016A  2987               	goto	l5710
  3211  016B                     l5692:	
  3212                           
  3213                           ;main.c: 1049: else
  3214                           ;main.c: 1050: {
  3215                           ;main.c: 1052: if(g_k1_prev)
  3216  016B  081E               	movf	_g_k1_prev,w
  3217  016C  1903               	btfsc	3,2
  3218  016D  2984               	goto	l5708
  3219                           
  3220                           ;main.c: 1053: {
  3221                           ;main.c: 1054: if(g_k1_hold_ms < 500)
  3222  016E  3001               	movlw	1
  3223  016F  0217               	subwf	_g_k1_hold_ms+1,w
  3224  0170  30F4               	movlw	244
  3225  0171  1903               	btfsc	3,2
  3226  0172  0216               	subwf	_g_k1_hold_ms,w
  3227  0173  1803               	btfsc	3,0
  3228  0174  2984               	goto	l5708
  3229                           
  3230                           ;main.c: 1055: {
  3231                           ;main.c: 1057: if(g_gear > 1)
  3232  0175  3002               	movlw	2
  3233  0176  0222               	subwf	_g_gear,w
  3234  0177  1C03               	btfss	3,0
  3235  0178  2980               	goto	l5704
  3236                           
  3237                           ;main.c: 1058: {
  3238                           ;main.c: 1059: g_gear--;
  3239  0179  03A2               	decf	_g_gear,f
  3240                           
  3241                           ;main.c: 1060: set_fan(g_gear);
  3242  017A  0822               	movf	_g_gear,w
  3243  017B  2763               	fcall	_set_fan
  3244                           
  3245                           ;main.c: 1061: show_gear_led(g_gear);
  3246  017C  1283               	bcf	3,5	;RP0=0, select bank0
  3247  017D  0822               	movf	_g_gear,w
  3248  017E  274C               	fcall	_show_gear_led
  3249                           
  3250                           ;main.c: 1062: }
  3251  017F  2984               	goto	l5708
  3252  0180                     l5704:	
  3253                           
  3254                           ;main.c: 1063: else if(g_gear == 1)
  3255  0180  0B22               	decfsz	_g_gear,w
  3256  0181  2984               	goto	l5708
  3257                           
  3258                           ;main.c: 1064: {
  3259                           ;main.c: 1065: trigger_warn(5);
  3260  0182  3005               	movlw	5
  3261  0183  27E3               	fcall	_trigger_warn
  3262  0184                     l5708:	
  3263                           
  3264                           ;main.c: 1066: }
  3265                           ;main.c: 1067: }
  3266                           ;main.c: 1068: }
  3267                           ;main.c: 1069: g_k1_hold_ms = 0;
  3268  0184  1283               	bcf	3,5	;RP0=0, select bank0
  3269  0185  0196               	clrf	_g_k1_hold_ms
  3270  0186  0197               	clrf	_g_k1_hold_ms+1
  3271  0187                     l5710:	
  3272                           
  3273                           ;main.c: 1070: }
  3274                           ;main.c: 1071: g_k1_prev = DIY_Flag1.OnrBit.b1;
  3275  0187  3000               	movlw	0
  3276  0188  18A3               	btfsc	_DIY_Flag1,1
  3277  0189  3001               	movlw	1
  3278  018A  009E               	movwf	_g_k1_prev
  3279  018B  0008               	return
  3280  018C                     __end_of_Key_Application:	
  3281  018C                     PL2:	
  3282  018C  1486               	bsf	6,1	;volatile
  3283  018D  1406               	bsf	6,0	;volatile
  3284  018E  1785               	bsf	5,7	;volatile
  3285  018F  1705               	bsf	5,6	;volatile
  3286  0190  1605               	bsf	5,4	;volatile
  3287  0191  0008               	return
  3288  0192                     __end_ofPL2:	
  3289  0192                     PL6:	
  3290  0192  18A3               	btfsc	_DIY_Flag1,1
  3291  0193  3001               	movlw	1
  3292  0194  009E               	movwf	_g_k1_prev
  3293  0195  3000               	movlw	0
  3294  0196  1923               	btfsc	_DIY_Flag1,2
  3295  0197  3001               	movlw	1
  3296  0198  1683               	bsf	3,5	;RP0=1, select bank1
  3297  0199  00B3               	movwf	_g_k2_prev^(0+128)
  3298  019A  0008               	return
  3299  019B                     __end_ofPL6:	
  3300  019B                     PL12:	
  3301  019B  1035               	bcf	_g_offshow_flag/(0+8),_g_offshow_flag& (0+7)
  3302  019C  1683               	bsf	3,5	;RP0=1, select bank1
  3303  019D  019A               	clrf	_g_offshow_ms^(0+128)
  3304  019E  019B               	clrf	(_g_offshow_ms+1)^(0+128)
  3305  019F  1283               	bcf	3,5	;RP0=0, select bank0
  3306  01A0  0008               	return
  3307  01A1                     __end_ofPL12:	
  3308                           
  3309                           	psect	text13
  3310  067B                     __ptext13:	
  3311  067B                     _warn_flash_proc:	
  3312 ;; *************** function _warn_flash_proc *****************
  3313 ;; Defined at:
  3314 ;;		line 700 in file "main.c"
  3315 ;; Parameters:    Size  Location     Type
  3316 ;;		None
  3317 ;; Auto vars:     Size  Location     Type
  3318 ;;		None
  3319 ;; Return value:  Size  Location     Type
  3320 ;;                  1    wreg      void 
  3321 ;; Registers used:
  3322 ;;		wreg, status,2, status,0, pclath, cstack
  3323 ;; Tracked objects:
  3324 ;;		On entry : 0/100
  3325 ;;		On exit  : 0/0
  3326 ;;		Unchanged: 0/0
  3327 ;; Data sizes:     COMMON   BANK0   BANK1
  3328 ;;      Params:         0       0       0
  3329 ;;      Locals:         0       0       0
  3330 ;;      Temps:          0       0       0
  3331 ;;      Totals:         0       0       0
  3332 ;;Total ram usage:        0 bytes
  3333 ;; Hardware stack levels used:    1
  3334 ;; Hardware stack levels required when called:    4
  3335 ;; This function calls:
  3336 ;;		_show_gear_led
  3337 ;; This function is called by:
  3338 ;;		_Key_Application
  3339 ;; This function uses a non-reentrant model
  3340 ;;
  3341                           ;psect for function _warn_flash_proc
  3342                           
  3343                           
  3344                           ;main.c: 702: if(g_warn_flash == 0)
  3345                           ;incstack = 0
  3346                           ; Regs used in _warn_flash_proc: [wreg+status,2+status,0+pclath+cstack]
  3347  067B  1283               	bcf	3,5	;RP0=0, select bank0
  3348  067C  0820               	movf	_g_warn_flash,w
  3349  067D  1903               	btfsc	3,2
  3350  067E  0008               	return
  3351  067F  3096               	movlw	150
  3352                           
  3353                           ;main.c: 704: g_warn_cnt++;
  3354  0680  1683               	bsf	3,5	;RP0=1, select bank1
  3355  0681  0AB2               	incf	_g_warn_cnt^(0+128),f
  3356                           
  3357                           ;main.c: 705: if(g_warn_cnt < 150)
  3358  0682  0232               	subwf	_g_warn_cnt^(0+128),w
  3359  0683  1C03               	btfss	3,0
  3360  0684  0008               	return
  3361  0685  3002               	movlw	(0+1) shl (_g_warn_blink& (0+7))
  3362                           
  3363                           ;main.c: 707: g_warn_cnt = 0;
  3364  0686  01B2               	clrf	_g_warn_cnt^(0+128)
  3365                           
  3366                           ;main.c: 710: g_warn_blink = !g_warn_blink;
  3367  0687  1283               	bcf	3,5	;RP0=0, select bank0
  3368  0688  06B5               	xorwf	_g_warn_blink/(0+8),f
  3369                           
  3370                           ;main.c: 711: g_warn_flash--;
  3371  0689  03A0               	decf	_g_warn_flash,f
  3372                           
  3373                           ;main.c: 713: if(g_warn_led == 1)
  3374  068A  0B1F               	decfsz	_g_warn_led,w
  3375  068B  2E96               	goto	l5126
  3376                           
  3377                           ;main.c: 714: {
  3378                           ;main.c: 716: (PORTA4 = 0); (PORTA6 = 0); (PORTA7 = 0); (PORTB0 = 0);
  3379  068C  1205               	bcf	5,4	;volatile
  3380  068D  1305               	bcf	5,6	;volatile
  3381  068E  1385               	bcf	5,7	;volatile
  3382  068F  1006               	bcf	6,0	;volatile
  3383                           
  3384                           ;main.c: 717: if(g_warn_blink) (PORTB1 = 1); else (PORTB1 = 0);
  3385  0690  1CB5               	btfss	_g_warn_blink/(0+8),_g_warn_blink& (0+7)
  3386  0691  2E94               	goto	l1204
  3387  0692  1486               	bsf	6,1	;volatile
  3388  0693  2EA3               	goto	l5132
  3389  0694                     l1204:	
  3390  0694  1086               	bcf	6,1	;volatile
  3391  0695  2EA3               	goto	l5132
  3392  0696                     l5126:	
  3393                           
  3394                           ;main.c: 719: else if(g_warn_led == 5)
  3395  0696  3005               	movlw	5
  3396  0697  061F               	xorwf	_g_warn_led,w
  3397  0698  1D03               	btfss	3,2
  3398  0699  2EA3               	goto	l5132
  3399                           
  3400                           ;main.c: 720: {
  3401                           ;main.c: 722: (PORTB1 = 1);
  3402  069A  1486               	bsf	6,1	;volatile
  3403                           
  3404                           ;main.c: 723: (PORTB0 = 1);
  3405  069B  1406               	bsf	6,0	;volatile
  3406                           
  3407                           ;main.c: 724: (PORTA7 = 1);
  3408  069C  1785               	bsf	5,7	;volatile
  3409                           
  3410                           ;main.c: 725: (PORTA6 = 1);
  3411  069D  1705               	bsf	5,6	;volatile
  3412                           
  3413                           ;main.c: 726: if(g_warn_blink) (PORTA4 = 1); else (PORTA4 = 0);
  3414  069E  1CB5               	btfss	_g_warn_blink/(0+8),_g_warn_blink& (0+7)
  3415  069F  2EA2               	goto	l1208
  3416  06A0  1605               	bsf	5,4	;volatile
  3417  06A1  2EA3               	goto	l5132
  3418  06A2                     l1208:	
  3419  06A2  1205               	bcf	5,4	;volatile
  3420  06A3                     l5132:	
  3421                           
  3422                           ;main.c: 727: }
  3423                           ;main.c: 730: if(g_warn_flash == 0)
  3424  06A3  0820               	movf	_g_warn_flash,w
  3425  06A4  1D03               	btfss	3,2
  3426  06A5  0008               	return
  3427                           
  3428                           ;main.c: 731: {
  3429                           ;main.c: 732: show_gear_led(g_gear);
  3430  06A6  0822               	movf	_g_gear,w
  3431  06A7  2F4C               	ljmp	_show_gear_led
  3432  06A8                     __end_of_warn_flash_proc:	
  3433                           
  3434                           	psect	text14
  3435  074C                     __ptext14:	
  3436  074C                     _show_gear_led:	
  3437 ;; *************** function _show_gear_led *****************
  3438 ;; Defined at:
  3439 ;;		line 626 in file "main.c"
  3440 ;; Parameters:    Size  Location     Type
  3441 ;;  gear            1    wreg     unsigned char 
  3442 ;; Auto vars:     Size  Location     Type
  3443 ;;  gear            1    8[BANK0 ] unsigned char 
  3444 ;; Return value:  Size  Location     Type
  3445 ;;                  1    wreg      void 
  3446 ;; Registers used:
  3447 ;;		wreg, status,2, status,0
  3448 ;; Tracked objects:
  3449 ;;		On entry : 0/0
  3450 ;;		On exit  : 100/0
  3451 ;;		Unchanged: 0/0
  3452 ;; Data sizes:     COMMON   BANK0   BANK1
  3453 ;;      Params:         0       0       0
  3454 ;;      Locals:         0       1       0
  3455 ;;      Temps:          0       0       0
  3456 ;;      Totals:         0       1       0
  3457 ;;Total ram usage:        1 bytes
  3458 ;; Hardware stack levels used:    1
  3459 ;; Hardware stack levels required when called:    3
  3460 ;; This function calls:
  3461 ;;		Nothing
  3462 ;; This function is called by:
  3463 ;;		_LedMode_Func
  3464 ;;		_warn_flash_proc
  3465 ;;		_Key_Application
  3466 ;; This function uses a non-reentrant model
  3467 ;;
  3468                           ;psect for function _show_gear_led
  3469                           
  3470                           
  3471                           ;incstack = 0
  3472                           ; Regs used in _show_gear_led: [wreg+status,2+status,0]
  3473                           ;show_gear_led@gear stored from wreg
  3474  074C  1283               	bcf	3,5	;RP0=0, select bank0
  3475  074D  00B1               	movwf	show_gear_led@gear
  3476                           
  3477                           ;main.c: 628: (PORTB1 = 1);
  3478                           ;main.c: 629: (PORTB0 = 1);
  3479                           ;main.c: 630: (PORTA7 = 1);
  3480                           ;main.c: 631: (PORTA6 = 1);
  3481                           ;main.c: 632: (PORTA4 = 1);
  3482  074E  218C               	fcall	PL2	;call to abstracted procedure
  3483                           
  3484                           ;main.c: 633: if(gear >= 1) (PORTA4 = 0);
  3485  074F  0831               	movf	show_gear_led@gear,w
  3486  0750  1D03               	btfss	3,2
  3487  0751  1205               	bcf	5,4	;volatile
  3488                           
  3489                           ;main.c: 634: if(gear >= 2) (PORTA6 = 0);
  3490  0752  3002               	movlw	2
  3491  0753  0231               	subwf	show_gear_led@gear,w
  3492  0754  1803               	btfsc	3,0
  3493  0755  1305               	bcf	5,6	;volatile
  3494                           
  3495                           ;main.c: 635: if(gear >= 3) (PORTA7 = 0);
  3496  0756  3003               	movlw	3
  3497  0757  0231               	subwf	show_gear_led@gear,w
  3498  0758  1803               	btfsc	3,0
  3499  0759  1385               	bcf	5,7	;volatile
  3500                           
  3501                           ;main.c: 636: if(gear >= 4) (PORTB0 = 0);
  3502  075A  3004               	movlw	4
  3503  075B  0231               	subwf	show_gear_led@gear,w
  3504  075C  1803               	btfsc	3,0
  3505  075D  1006               	bcf	6,0	;volatile
  3506                           
  3507                           ;main.c: 637: if(gear >= 5) (PORTB1 = 0);
  3508  075E  3005               	movlw	5
  3509  075F  0231               	subwf	show_gear_led@gear,w
  3510  0760  1803               	btfsc	3,0
  3511  0761  1086               	bcf	6,1	;volatile
  3512  0762  0008               	return
  3513  0763                     __end_of_show_gear_led:	
  3514                           
  3515                           	psect	text15
  3516  07E3                     __ptext15:	
  3517  07E3                     _trigger_warn:	
  3518 ;; *************** function _trigger_warn *****************
  3519 ;; Defined at:
  3520 ;;		line 687 in file "main.c"
  3521 ;; Parameters:    Size  Location     Type
  3522 ;;  led_num         1    wreg     unsigned char 
  3523 ;; Auto vars:     Size  Location     Type
  3524 ;;  led_num         1    8[BANK0 ] unsigned char 
  3525 ;; Return value:  Size  Location     Type
  3526 ;;                  1    wreg      void 
  3527 ;; Registers used:
  3528 ;;		wreg, status,2, status,0
  3529 ;; Tracked objects:
  3530 ;;		On entry : 0/100
  3531 ;;		On exit  : 0/0
  3532 ;;		Unchanged: 0/0
  3533 ;; Data sizes:     COMMON   BANK0   BANK1
  3534 ;;      Params:         0       0       0
  3535 ;;      Locals:         0       1       0
  3536 ;;      Temps:          0       0       0
  3537 ;;      Totals:         0       1       0
  3538 ;;Total ram usage:        1 bytes
  3539 ;; Hardware stack levels used:    1
  3540 ;; Hardware stack levels required when called:    3
  3541 ;; This function calls:
  3542 ;;		Nothing
  3543 ;; This function is called by:
  3544 ;;		_Key_Application
  3545 ;; This function uses a non-reentrant model
  3546 ;;
  3547                           ;psect for function _trigger_warn
  3548                           
  3549                           
  3550                           ;incstack = 0
  3551                           ; Regs used in _trigger_warn: [wreg+status,2+status,0]
  3552                           ;trigger_warn@led_num stored from wreg
  3553  07E3  1283               	bcf	3,5	;RP0=0, select bank0
  3554  07E4  00B1               	movwf	trigger_warn@led_num
  3555                           
  3556                           ;main.c: 689: if(g_warn_flash == 0)
  3557  07E5  0820               	movf	_g_warn_flash,w
  3558  07E6  1D03               	btfss	3,2
  3559  07E7  0008               	return
  3560                           
  3561                           ;main.c: 690: {
  3562                           ;main.c: 691: g_warn_flash = 4;
  3563  07E8  3004               	movlw	4
  3564  07E9  00A0               	movwf	_g_warn_flash
  3565                           
  3566                           ;main.c: 692: g_warn_led = led_num;
  3567  07EA  0831               	movf	trigger_warn@led_num,w
  3568  07EB  009F               	movwf	_g_warn_led
  3569                           
  3570                           ;main.c: 693: g_warn_blink = 0;
  3571  07EC  10B5               	bcf	_g_warn_blink/(0+8),_g_warn_blink& (0+7)
  3572                           
  3573                           ;main.c: 694: g_warn_cnt = 0;
  3574  07ED  1683               	bsf	3,5	;RP0=1, select bank1
  3575  07EE  01B2               	clrf	_g_warn_cnt^(0+128)
  3576  07EF  0008               	return
  3577  07F0                     __end_of_trigger_warn:	
  3578                           
  3579                           	psect	text16
  3580  0763                     __ptext16:	
  3581  0763                     _set_fan:	
  3582 ;; *************** function _set_fan *****************
  3583 ;; Defined at:
  3584 ;;		line 645 in file "main.c"
  3585 ;; Parameters:    Size  Location     Type
  3586 ;;  gear            1    wreg     unsigned char 
  3587 ;; Auto vars:     Size  Location     Type
  3588 ;;  gear            1    8[BANK0 ] unsigned char 
  3589 ;; Return value:  Size  Location     Type
  3590 ;;                  1    wreg      void 
  3591 ;; Registers used:
  3592 ;;		wreg, fsr0l, fsr0h, status,2, status,0, pclath
  3593 ;; Tracked objects:
  3594 ;;		On entry : 100/0
  3595 ;;		On exit  : 100/100
  3596 ;;		Unchanged: 0/0
  3597 ;; Data sizes:     COMMON   BANK0   BANK1
  3598 ;;      Params:         0       0       0
  3599 ;;      Locals:         0       1       0
  3600 ;;      Temps:          0       0       0
  3601 ;;      Totals:         0       1       0
  3602 ;;Total ram usage:        1 bytes
  3603 ;; Hardware stack levels used:    1
  3604 ;; Hardware stack levels required when called:    3
  3605 ;; This function calls:
  3606 ;;		Nothing
  3607 ;; This function is called by:
  3608 ;;		_Key_Application
  3609 ;;		_main
  3610 ;; This function uses a non-reentrant model
  3611 ;;
  3612                           ;psect for function _set_fan
  3613                           
  3614                           
  3615                           ;incstack = 0
  3616                           ; Regs used in _set_fan: [wreg-fsr0h+status,2+status,0+pclath]
  3617                           ;set_fan@gear stored from wreg
  3618  0763  00B1               	movwf	set_fan@gear
  3619                           
  3620                           ;main.c: 647: if(gear == 0)
  3621  0764  0831               	movf	set_fan@gear,w
  3622  0765  1D03               	btfss	3,2
  3623  0766  2F6A               	goto	l5090
  3624                           
  3625                           ;main.c: 648: {
  3626                           ;main.c: 649: g_target_pwm = 0;
  3627  0767  1683               	bsf	3,5	;RP0=1, select bank1
  3628  0768  01B4               	clrf	_g_target_pwm^(0+128)
  3629  0769  0008               	return
  3630  076A                     l5090:	
  3631                           
  3632                           ;main.c: 651: }
  3633                           ;main.c: 652: if(gear > 6)
  3634  076A  3007               	movlw	7
  3635  076B  0231               	subwf	set_fan@gear,w
  3636  076C  1C03               	btfss	3,0
  3637  076D  2F70               	goto	l5094
  3638                           
  3639                           ;main.c: 653: gear = 6;
  3640  076E  3006               	movlw	6
  3641  076F  00B1               	movwf	set_fan@gear
  3642  0770                     l5094:	
  3643                           
  3644                           ;main.c: 655: g_target_pwm = c_fan_duty[gear];
  3645  0770  0831               	movf	set_fan@gear,w
  3646  0771  3E01               	addlw	low ((_c_fan_duty-__stringbase)| (0+32768))
  3647  0772  0084               	movwf	4
  3648  0773  27C9               	fcall	stringdir
  3649  0774  1683               	bsf	3,5	;RP0=1, select bank1
  3650  0775  00B4               	movwf	_g_target_pwm^(0+128)
  3651  0776  0008               	return
  3652  0777                     __end_of_set_fan:	
  3653                           
  3654                           	psect	text17
  3655  03E0                     __ptext17:	
  3656  03E0                     _Battery_Update:	
  3657 ;; *************** function _Battery_Update *****************
  3658 ;; Defined at:
  3659 ;;		line 541 in file "main.c"
  3660 ;; Parameters:    Size  Location     Type
  3661 ;;		None
  3662 ;; Auto vars:     Size  Location     Type
  3663 ;;  adc_val         2   10[BANK0 ] unsigned int 
  3664 ;; Return value:  Size  Location     Type
  3665 ;;                  1    wreg      void 
  3666 ;; Registers used:
  3667 ;;		wreg, status,2, status,0, pclath, cstack
  3668 ;; Tracked objects:
  3669 ;;		On entry : 0/100
  3670 ;;		On exit  : 0/0
  3671 ;;		Unchanged: 0/0
  3672 ;; Data sizes:     COMMON   BANK0   BANK1
  3673 ;;      Params:         0       0       0
  3674 ;;      Locals:         0       2       0
  3675 ;;      Temps:          0       0       0
  3676 ;;      Totals:         0       2       0
  3677 ;;Total ram usage:        2 bytes
  3678 ;; Hardware stack levels used:    1
  3679 ;; Hardware stack levels required when called:    4
  3680 ;; This function calls:
  3681 ;;		_adc_read_vdd
  3682 ;; This function is called by:
  3683 ;;		_Key_Application
  3684 ;;		_main
  3685 ;; This function uses a non-reentrant model
  3686 ;;
  3687                           ;psect for function _Battery_Update
  3688                           
  3689                           
  3690                           ;main.c: 543: static unsigned char low_debounce = 0;
  3691                           ;main.c: 544: static unsigned char low_clr_debounce = 0;
  3692                           ;main.c: 545: unsigned int adc_val;
  3693                           ;main.c: 546: static unsigned char loop_num = 0;
  3694                           ;main.c: 547: static unsigned int loop_min = 0;
  3695                           ;main.c: 548: static unsigned int loop_max = 0;
  3696                           ;main.c: 549: static unsigned int loop_sum = 0;
  3697                           ;main.c: 550: static unsigned char startup_cnt = 50;
  3698                           ;main.c: 551: adc_val = adc_read_vdd();
  3699                           ;incstack = 0
  3700                           ; Regs used in _Battery_Update: [wreg+status,2+status,0+pclath+cstack]
  3701  03E0  25B3               	fcall	_adc_read_vdd
  3702  03E1  0832               	movf	?_adc_read_vdd+1,w
  3703  03E2  00B4               	movwf	Battery_Update@adc_val+1
  3704  03E3  0831               	movf	?_adc_read_vdd,w
  3705  03E4  00B3               	movwf	Battery_Update@adc_val
  3706                           
  3707                           ;main.c: 553: if(loop_num == 0)
  3708  03E5  1683               	bsf	3,5	;RP0=1, select bank1
  3709  03E6  082C               	movf	Battery_Update@loop_num^(0+128),w
  3710  03E7  1D03               	btfss	3,2
  3711  03E8  2BF2               	goto	l5000
  3712                           
  3713                           ;main.c: 554: {
  3714                           ;main.c: 555: loop_min = adc_val;
  3715  03E9  1283               	bcf	3,5	;RP0=0, select bank0
  3716  03EA  0834               	movf	Battery_Update@adc_val+1,w
  3717  03EB  1683               	bsf	3,5	;RP0=1, select bank1
  3718  03EC  24B1               	fcall	PL14	;call to abstracted procedure
  3719                           
  3720                           ;main.c: 556: loop_max = adc_val;
  3721  03ED  1283               	bcf	3,5	;RP0=0, select bank0
  3722  03EE  24A9               	fcall	PL8	;call to abstracted procedure
  3723                           
  3724                           ;main.c: 557: loop_sum = 0;
  3725  03EF  0190               	clrf	Battery_Update@loop_sum^(0+128)
  3726  03F0  0191               	clrf	(Battery_Update@loop_sum+1)^(0+128)
  3727                           
  3728                           ;main.c: 558: }
  3729  03F1  2C0C               	goto	l1140
  3730  03F2                     l5000:	
  3731                           
  3732                           ;main.c: 559: else if(loop_min > adc_val) loop_min = adc_val;
  3733  03F2  0815               	movf	(Battery_Update@loop_min+1)^(0+128),w
  3734  03F3  1283               	bcf	3,5	;RP0=0, select bank0
  3735  03F4  0234               	subwf	Battery_Update@adc_val+1,w
  3736  03F5  1D03               	btfss	3,2
  3737  03F6  2BFB               	goto	u4355
  3738  03F7  1683               	bsf	3,5	;RP0=1, select bank1
  3739  03F8  0814               	movf	Battery_Update@loop_min^(0+128),w
  3740  03F9  1283               	bcf	3,5	;RP0=0, select bank0
  3741  03FA  0233               	subwf	Battery_Update@adc_val,w
  3742  03FB                     u4355:	
  3743  03FB  0834               	movf	Battery_Update@adc_val+1,w
  3744  03FC  1683               	bsf	3,5	;RP0=1, select bank1
  3745  03FD  1803               	btfsc	3,0
  3746  03FE  2C01               	goto	L5
  3747  03FF  24B1               	fcall	PL14	;call to abstracted procedure
  3748  0400  2C0C               	goto	l1140
  3749  0401                     L5:	
  3750                           
  3751                           ;main.c: 560: else if(loop_max < adc_val) loop_max = adc_val;
  3752  0401  0213               	subwf	(Battery_Update@loop_max+1)^(0+128),w
  3753  0402  1283               	bcf	3,5	;RP0=0, select bank0
  3754  0403  1D03               	btfss	3,2
  3755  0404  2C09               	goto	L7
  3756  0405  0833               	movf	Battery_Update@adc_val,w
  3757  0406  1683               	bsf	3,5	;RP0=1, select bank1
  3758  0407  0212               	subwf	Battery_Update@loop_max^(0+128),w
  3759  0408  1283               	bcf	3,5	;RP0=0, select bank0
  3760  0409                     L7:	
  3761  0409  1803               	btfsc	3,0
  3762  040A  2C0D               	goto	L6
  3763  040B  24A9               	fcall	PL8	;call to abstracted procedure
  3764  040C                     l1140:	
  3765                           
  3766                           ;main.c: 562: loop_sum += adc_val;
  3767  040C  1283               	bcf	3,5	;RP0=0, select bank0
  3768  040D                     L6:	
  3769  040D  0833               	movf	Battery_Update@adc_val,w
  3770  040E  1683               	bsf	3,5	;RP0=1, select bank1
  3771  040F  0790               	addwf	Battery_Update@loop_sum^(0+128),f
  3772  0410  1803               	btfsc	3,0
  3773  0411  0A91               	incf	(Battery_Update@loop_sum+1)^(0+128),f
  3774  0412  1283               	bcf	3,5	;RP0=0, select bank0
  3775  0413  0834               	movf	Battery_Update@adc_val+1,w
  3776  0414  1683               	bsf	3,5	;RP0=1, select bank1
  3777  0415  0791               	addwf	(Battery_Update@loop_sum+1)^(0+128),f
  3778  0416  300A               	movlw	10
  3779                           
  3780                           ;main.c: 563: loop_num++;
  3781  0417  0AAC               	incf	Battery_Update@loop_num^(0+128),f
  3782                           
  3783                           ;main.c: 565: if(loop_num >= 10)
  3784  0418  022C               	subwf	Battery_Update@loop_num^(0+128),w
  3785  0419  1C03               	btfss	3,0
  3786  041A  0008               	return
  3787                           
  3788                           ;main.c: 566: {
  3789                           ;main.c: 567: loop_num = 0;
  3790  041B  01AC               	clrf	Battery_Update@loop_num^(0+128)
  3791                           
  3792                           ;main.c: 568: loop_sum -= loop_min;
  3793  041C  0814               	movf	Battery_Update@loop_min^(0+128),w
  3794  041D  0290               	subwf	Battery_Update@loop_sum^(0+128),f
  3795  041E  0815               	movf	(Battery_Update@loop_min+1)^(0+128),w
  3796  041F  1C03               	btfss	3,0
  3797  0420  0391               	decf	(Battery_Update@loop_sum+1)^(0+128),f
  3798  0421  0291               	subwf	(Battery_Update@loop_sum+1)^(0+128),f
  3799                           
  3800                           ;main.c: 569: loop_sum -= loop_max;
  3801  0422  0812               	movf	Battery_Update@loop_max^(0+128),w
  3802  0423  0290               	subwf	Battery_Update@loop_sum^(0+128),f
  3803  0424  0813               	movf	(Battery_Update@loop_max+1)^(0+128),w
  3804  0425  1C03               	btfss	3,0
  3805  0426  0391               	decf	(Battery_Update@loop_sum+1)^(0+128),f
  3806  0427  0291               	subwf	(Battery_Update@loop_sum+1)^(0+128),f
  3807                           
  3808                           ;main.c: 570: loop_sum = loop_sum >> 3;
  3809  0428  1003               	bcf	3,0
  3810  0429  0C91               	rrf	(Battery_Update@loop_sum+1)^(0+128),f
  3811  042A  0C90               	rrf	Battery_Update@loop_sum^(0+128),f
  3812  042B  1003               	bcf	3,0
  3813  042C  0C91               	rrf	(Battery_Update@loop_sum+1)^(0+128),f
  3814  042D  0C90               	rrf	Battery_Update@loop_sum^(0+128),f
  3815  042E  1003               	bcf	3,0
  3816  042F  0C91               	rrf	(Battery_Update@loop_sum+1)^(0+128),f
  3817  0430  0C90               	rrf	Battery_Update@loop_sum^(0+128),f
  3818                           
  3819                           ;main.c: 571: g_vdd_adc = loop_sum;
  3820  0431  0811               	movf	(Battery_Update@loop_sum+1)^(0+128),w
  3821  0432  1283               	bcf	3,5	;RP0=0, select bank0
  3822  0433  0091               	movwf	_g_vdd_adc+1
  3823  0434  1683               	bsf	3,5	;RP0=1, select bank1
  3824  0435  0810               	movf	Battery_Update@loop_sum^(0+128),w
  3825  0436  1283               	bcf	3,5	;RP0=0, select bank0
  3826  0437  0090               	movwf	_g_vdd_adc
  3827                           
  3828                           ;main.c: 573: if(g_slave_chargefull) level = 6;
  3829  0438  1DB5               	btfss	_g_slave_chargefull/(0+8),_g_slave_chargefull& (0+7)
  3830  0439  2C3C               	goto	l5026
  3831  043A                     l5024:	
  3832  043A  3006               	movlw	6
  3833  043B  2C72               	goto	L4
  3834  043C                     l5026:	
  3835                           
  3836                           ;main.c: 574: else if(g_vdd_adc < 2363u) level = 0;
  3837  043C  3009               	movlw	9
  3838  043D  0211               	subwf	_g_vdd_adc+1,w
  3839  043E  303B               	movlw	59
  3840  043F  1903               	btfsc	3,2
  3841  0440  0210               	subwf	_g_vdd_adc,w
  3842  0441  1803               	btfsc	3,0
  3843  0442  2C45               	goto	l5030
  3844  0443  019D               	clrf	_level
  3845  0444  2C73               	goto	l5052
  3846  0445                     l5030:	
  3847                           
  3848                           ;main.c: 575: else if(g_vdd_adc < 2544u) level = 1;
  3849  0445  3009               	movlw	9
  3850  0446  0211               	subwf	_g_vdd_adc+1,w
  3851  0447  30F0               	movlw	240
  3852  0448  1903               	btfsc	3,2
  3853  0449  0210               	subwf	_g_vdd_adc,w
  3854  044A  1803               	btfsc	3,0
  3855  044B  2C4F               	goto	l5034
  3856  044C  019D               	clrf	_level
  3857  044D  0A9D               	incf	_level,f
  3858  044E  2C73               	goto	l5052
  3859  044F                     l5034:	
  3860                           
  3861                           ;main.c: 576: else if(g_vdd_adc < 2914u) level = 2;
  3862  044F  300B               	movlw	11
  3863  0450  0211               	subwf	_g_vdd_adc+1,w
  3864  0451  3062               	movlw	98
  3865  0452  1903               	btfsc	3,2
  3866  0453  0210               	subwf	_g_vdd_adc,w
  3867  0454  1803               	btfsc	3,0
  3868  0455  2C58               	goto	l5038
  3869  0456  3002               	movlw	2
  3870  0457  2C72               	goto	L4
  3871  0458                     l5038:	
  3872                           
  3873                           ;main.c: 577: else if(g_vdd_adc < 3072u) level = 3;
  3874  0458  300C               	movlw	12
  3875  0459  0211               	subwf	_g_vdd_adc+1,w
  3876  045A  3000               	movlw	0
  3877  045B  1903               	btfsc	3,2
  3878  045C  0210               	subwf	_g_vdd_adc,w
  3879  045D  1803               	btfsc	3,0
  3880  045E  2C61               	goto	l5042
  3881  045F  3003               	movlw	3
  3882  0460  2C72               	goto	L4
  3883  0461                     l5042:	
  3884                           
  3885                           ;main.c: 578: else if(g_vdd_adc < 3229u) level = 4;
  3886  0461  300C               	movlw	12
  3887  0462  0211               	subwf	_g_vdd_adc+1,w
  3888  0463  309D               	movlw	157
  3889  0464  1903               	btfsc	3,2
  3890  0465  0210               	subwf	_g_vdd_adc,w
  3891  0466  1803               	btfsc	3,0
  3892  0467  2C6A               	goto	l5046
  3893  0468  3004               	movlw	4
  3894  0469  2C72               	goto	L4
  3895  046A                     l5046:	
  3896                           
  3897                           ;main.c: 579: else if(g_vdd_adc <= 3308u) level = 5;
  3898  046A  300C               	movlw	12
  3899  046B  0211               	subwf	_g_vdd_adc+1,w
  3900  046C  30ED               	movlw	237
  3901  046D  1903               	btfsc	3,2
  3902  046E  0210               	subwf	_g_vdd_adc,w
  3903  046F  1803               	btfsc	3,0
  3904  0470  2C3A               	goto	l5024
  3905  0471  3005               	movlw	5
  3906  0472                     L4:	
  3907  0472  009D               	movwf	_level
  3908  0473                     l5052:	
  3909                           
  3910                           ;main.c: 581: if(startup_cnt > 0)
  3911  0473  1683               	bsf	3,5	;RP0=1, select bank1
  3912  0474  0848               	movf	Battery_Update@startup_cnt^(0+128),w
  3913  0475  1903               	btfsc	3,2
  3914  0476  2C7B               	goto	l1159
  3915                           
  3916                           ;main.c: 582: {
  3917                           ;main.c: 583: startup_cnt--;
  3918  0477  03C8               	decf	Battery_Update@startup_cnt^(0+128),f
  3919                           
  3920                           ;main.c: 584: B_LowPower_Flag = 0;
  3921  0478  1283               	bcf	3,5	;RP0=0, select bank0
  3922  0479  12B5               	bcf	_B_LowPower_Flag/(0+8),_B_LowPower_Flag& (0+7)
  3923                           
  3924                           ;main.c: 585: }
  3925  047A  0008               	return
  3926  047B                     l1159:	
  3927                           
  3928                           ;main.c: 586: else
  3929                           ;main.c: 587: {
  3930                           ;main.c: 588: if(B_LowPower_Flag == 0)
  3931  047B  1283               	bcf	3,5	;RP0=0, select bank0
  3932  047C  1AB5               	btfsc	_B_LowPower_Flag/(0+8),_B_LowPower_Flag& (0+7)
  3933  047D  2C9F               	goto	l5070
  3934                           
  3935                           ;main.c: 589: {
  3936                           ;main.c: 591: if(g_vdd_adc < 2521u)
  3937  047E  3009               	movlw	9
  3938  047F  0211               	subwf	_g_vdd_adc+1,w
  3939  0480  30D9               	movlw	217
  3940  0481  1903               	btfsc	3,2
  3941  0482  0210               	subwf	_g_vdd_adc,w
  3942  0483  1803               	btfsc	3,0
  3943  0484  2C9C               	goto	l5068
  3944                           
  3945                           ;main.c: 592: {
  3946                           ;main.c: 593: if(low_debounce < 5) low_debounce++;
  3947  0485  3005               	movlw	5
  3948  0486  1683               	bsf	3,5	;RP0=1, select bank1
  3949  0487  022E               	subwf	Battery_Update@low_debounce^(0+128),w
  3950  0488  1C03               	btfss	3,0
  3951  0489  0AAE               	incf	Battery_Update@low_debounce^(0+128),f
  3952                           
  3953                           ;main.c: 594: if(low_debounce >= 5) B_LowPower_Flag = 1;
  3954  048A  3005               	movlw	5
  3955  048B  022E               	subwf	Battery_Update@low_debounce^(0+128),w
  3956  048C  1C03               	btfss	3,0
  3957  048D  0008               	return
  3958  048E  1283               	bcf	3,5	;RP0=0, select bank0
  3959  048F  16B5               	bsf	_B_LowPower_Flag/(0+8),_B_LowPower_Flag& (0+7)
  3960  0490  0008               	return
  3961  0491                     l5072:	
  3962                           
  3963                           ;main.c: 604: {
  3964                           ;main.c: 605: if(low_clr_debounce < 3) low_clr_debounce++;
  3965  0491  3003               	movlw	3
  3966  0492  1683               	bsf	3,5	;RP0=1, select bank1
  3967  0493  022D               	subwf	Battery_Update@low_clr_debounce^(0+128),w
  3968  0494  1C03               	btfss	3,0
  3969  0495  0AAD               	incf	Battery_Update@low_clr_debounce^(0+128),f
  3970                           
  3971                           ;main.c: 606: if(low_clr_debounce >= 3)
  3972  0496  3003               	movlw	3
  3973  0497  022D               	subwf	Battery_Update@low_clr_debounce^(0+128),w
  3974  0498  1C03               	btfss	3,0
  3975  0499  0008               	return
  3976                           
  3977                           ;main.c: 607: {
  3978                           ;main.c: 608: B_LowPower_Flag = 0;
  3979  049A  1283               	bcf	3,5	;RP0=0, select bank0
  3980  049B  12B5               	bcf	_B_LowPower_Flag/(0+8),_B_LowPower_Flag& (0+7)
  3981  049C                     l5068:	
  3982                           
  3983                           ;main.c: 596: else
  3984                           ;main.c: 597: {
  3985                           ;main.c: 598: low_debounce = 0;
  3986  049C  1683               	bsf	3,5	;RP0=1, select bank1
  3987  049D  01AE               	clrf	Battery_Update@low_debounce^(0+128)
  3988  049E  0008               	return
  3989  049F                     l5070:	
  3990                           
  3991                           ;main.c: 601: else
  3992                           ;main.c: 602: {
  3993                           ;main.c: 603: if(g_vdd_adc >= 2544u)
  3994  049F  3009               	movlw	9
  3995  04A0  0211               	subwf	_g_vdd_adc+1,w
  3996  04A1  30F0               	movlw	240
  3997  04A2  1903               	btfsc	3,2
  3998  04A3  0210               	subwf	_g_vdd_adc,w
  3999  04A4  1803               	btfsc	3,0
  4000  04A5  2C91               	goto	l5072
  4001                           
  4002                           ;main.c: 612: else
  4003                           ;main.c: 613: {
  4004                           ;main.c: 614: low_clr_debounce = 0;
  4005  04A6  1683               	bsf	3,5	;RP0=1, select bank1
  4006  04A7  01AD               	clrf	Battery_Update@low_clr_debounce^(0+128)
  4007  04A8  0008               	return
  4008  04A9                     __end_of_Battery_Update:	
  4009  04A9                     PL8:	
  4010  04A9  0834               	movf	Battery_Update@adc_val+1,w
  4011  04AA  1683               	bsf	3,5	;RP0=1, select bank1
  4012  04AB  0093               	movwf	(Battery_Update@loop_max+1)^(0+128)
  4013  04AC  1283               	bcf	3,5	;RP0=0, select bank0
  4014  04AD  0833               	movf	Battery_Update@adc_val,w
  4015  04AE  1683               	bsf	3,5	;RP0=1, select bank1
  4016  04AF  0092               	movwf	Battery_Update@loop_max^(0+128)
  4017  04B0  0008               	return
  4018  04B1                     __end_ofPL8:	
  4019  04B1                     PL14:	
  4020  04B1  0095               	movwf	(Battery_Update@loop_min+1)^(0+128)
  4021  04B2  1283               	bcf	3,5	;RP0=0, select bank0
  4022  04B3  0833               	movf	Battery_Update@adc_val,w
  4023  04B4  1683               	bsf	3,5	;RP0=1, select bank1
  4024  04B5  0094               	movwf	Battery_Update@loop_min^(0+128)
  4025  04B6  0008               	return
  4026  04B7                     __end_ofPL14:	
  4027                           
  4028                           	psect	text18
  4029  05B3                     __ptext18:	
  4030  05B3                     _adc_read_vdd:	
  4031 ;; *************** function _adc_read_vdd *****************
  4032 ;; Defined at:
  4033 ;;		line 362 in file "main.c"
  4034 ;; Parameters:    Size  Location     Type
  4035 ;;		None
  4036 ;; Auto vars:     Size  Location     Type
  4037 ;;  result          2    2[BANK1 ] unsigned int 
  4038 ;;  ad_delay        2    0[BANK1 ] unsigned int 
  4039 ;; Return value:  Size  Location     Type
  4040 ;;                  2    8[BANK0 ] unsigned int 
  4041 ;; Registers used:
  4042 ;;		wreg, status,2, status,0
  4043 ;; Tracked objects:
  4044 ;;		On entry : 0/100
  4045 ;;		On exit  : 100/0
  4046 ;;		Unchanged: 0/0
  4047 ;; Data sizes:     COMMON   BANK0   BANK1
  4048 ;;      Params:         0       2       0
  4049 ;;      Locals:         0       0       4
  4050 ;;      Temps:          0       0       0
  4051 ;;      Totals:         0       2       4
  4052 ;;Total ram usage:        6 bytes
  4053 ;; Hardware stack levels used:    1
  4054 ;; Hardware stack levels required when called:    3
  4055 ;; This function calls:
  4056 ;;		Nothing
  4057 ;; This function is called by:
  4058 ;;		_Battery_Update
  4059 ;; This function uses a non-reentrant model
  4060 ;;
  4061                           ;psect for function _adc_read_vdd
  4062                           
  4063                           
  4064                           ;main.c: 364: unsigned int result;
  4065                           ;main.c: 365: unsigned int ad_delay;
  4066                           ;main.c: 367: ADCON0 = 0x15;
  4067                           ;incstack = 0
  4068                           ; Regs used in _adc_read_vdd: [wreg+status,2+status,0]
  4069  05B3  3015               	movlw	21
  4070  05B4  1283               	bcf	3,5	;RP0=0, select bank0
  4071  05B5  00DA               	movwf	90	;volatile
  4072                           
  4073                           ;main.c: 368: ADCON1 = adcon1_val;
  4074  05B6  0824               	movf	_adcon1_val,w
  4075  05B7  00DB               	movwf	91	;volatile
  4076                           
  4077                           ;main.c: 369: ADEN = 1;
  4078  05B8  145A               	bsf	90,0	;volatile
  4079                           
  4080                           ;main.c: 371: ADIF = 0;
  4081  05B9  110F               	bcf	15,2	;volatile
  4082                           
  4083                           ;main.c: 372: ADON = 1;
  4084  05BA  14DA               	bsf	90,1	;volatile
  4085                           
  4086                           ;main.c: 374: ad_delay = 0;
  4087  05BB  1683               	bsf	3,5	;RP0=1, select bank1
  4088  05BC  01BC               	clrf	adc_read_vdd@ad_delay^(0+128)
  4089  05BD  01BD               	clrf	(adc_read_vdd@ad_delay+1)^(0+128)
  4090  05BE                     l1043:	
  4091                           
  4092                           ;main.c: 375: while(ADON)
  4093  05BE  1283               	bcf	3,5	;RP0=0, select bank0
  4094  05BF  1CDA               	btfss	90,1	;volatile
  4095  05C0  2DCD               	goto	l4924
  4096  05C1  0064               	clrwdt	;# 
  4097                           
  4098                           ;main.c: 380: ad_delay++;
  4099  05C2  1683               	bsf	3,5	;RP0=1, select bank1
  4100  05C3  0ABC               	incf	adc_read_vdd@ad_delay^(0+128),f
  4101  05C4  1903               	btfsc	3,2
  4102  05C5  0ABD               	incf	(adc_read_vdd@ad_delay+1)^(0+128),f
  4103                           
  4104                           ;main.c: 381: if(ad_delay >= 20000)
  4105  05C6  304E               	movlw	78
  4106  05C7  023D               	subwf	(adc_read_vdd@ad_delay+1)^(0+128),w
  4107  05C8  3020               	movlw	32
  4108  05C9  1903               	btfsc	3,2
  4109  05CA  023C               	subwf	adc_read_vdd@ad_delay^(0+128),w
  4110  05CB  1C03               	btfss	3,0
  4111  05CC  2DBE               	goto	l1043
  4112  05CD                     l4924:	
  4113                           
  4114                           ;main.c: 383: }
  4115                           ;main.c: 385: result = ((unsigned int)ADRESH << 4) | (ADRESL >> 4);
  4116  05CD  1283               	bcf	3,5	;RP0=0, select bank0
  4117  05CE  0859               	movf	89,w	;volatile
  4118  05CF  1683               	bsf	3,5	;RP0=1, select bank1
  4119  05D0  00BE               	movwf	adc_read_vdd@result^(0+128)
  4120  05D1  30F0               	movlw	240
  4121  05D2  01BF               	clrf	(adc_read_vdd@result+1)^(0+128)
  4122  05D3  0EBE               	swapf	adc_read_vdd@result^(0+128),f
  4123  05D4  0EBF               	swapf	(adc_read_vdd@result+1)^(0+128),f
  4124  05D5  05BF               	andwf	(adc_read_vdd@result+1)^(0+128),f
  4125  05D6  083E               	movf	adc_read_vdd@result^(0+128),w
  4126  05D7  390F               	andlw	15
  4127  05D8  04BF               	iorwf	(adc_read_vdd@result+1)^(0+128),f
  4128  05D9  30F0               	movlw	240
  4129  05DA  05BE               	andwf	adc_read_vdd@result^(0+128),f
  4130  05DB  1283               	bcf	3,5	;RP0=0, select bank0
  4131  05DC  0E58               	swapf	88,w	;volatile
  4132  05DD  390F               	andlw	15
  4133  05DE  1683               	bsf	3,5	;RP0=1, select bank1
  4134  05DF  04BE               	iorwf	adc_read_vdd@result^(0+128),f
  4135                           
  4136                           ;main.c: 386: return result;
  4137  05E0  083F               	movf	(adc_read_vdd@result+1)^(0+128),w
  4138  05E1  1283               	bcf	3,5	;RP0=0, select bank0
  4139  05E2  00B2               	movwf	?_adc_read_vdd+1
  4140  05E3  1683               	bsf	3,5	;RP0=1, select bank1
  4141  05E4  083E               	movf	adc_read_vdd@result^(0+128),w
  4142  05E5  1283               	bcf	3,5	;RP0=0, select bank0
  4143  05E6  00B1               	movwf	?_adc_read_vdd
  4144  05E7  0008               	return
  4145  05E8                     __end_of_adc_read_vdd:	
  4146                           
  4147                           	psect	text19
  4148  06A8                     __ptext19:	
  4149  06A8                     _Flag_AllClear:	
  4150 ;; *************** function _Flag_AllClear *****************
  4151 ;; Defined at:
  4152 ;;		line 1414 in file "main.c"
  4153 ;; Parameters:    Size  Location     Type
  4154 ;;		None
  4155 ;; Auto vars:     Size  Location     Type
  4156 ;;		None
  4157 ;; Return value:  Size  Location     Type
  4158 ;;                  1    wreg      void 
  4159 ;; Registers used:
  4160 ;;		wreg, status,2
  4161 ;; Tracked objects:
  4162 ;;		On entry : 100/0
  4163 ;;		On exit  : 100/0
  4164 ;;		Unchanged: 0/0
  4165 ;; Data sizes:     COMMON   BANK0   BANK1
  4166 ;;      Params:         0       0       0
  4167 ;;      Locals:         0       0       0
  4168 ;;      Temps:          0       0       0
  4169 ;;      Totals:         0       0       0
  4170 ;;Total ram usage:        0 bytes
  4171 ;; Hardware stack levels used:    1
  4172 ;; Hardware stack levels required when called:    3
  4173 ;; This function calls:
  4174 ;;		Nothing
  4175 ;; This function is called by:
  4176 ;;		_main
  4177 ;; This function uses a non-reentrant model
  4178 ;;
  4179                           ;psect for function _Flag_AllClear
  4180                           
  4181                           
  4182                           ;main.c: 1416: (PORTB1 = 1);
  4183                           ;incstack = 0
  4184                           ; Regs used in _Flag_AllClear: [wreg+status,2]
  4185                           ;main.c: 1417: (PORTB0 = 1);
  4186                           ;main.c: 1418: (PORTA7 = 1);
  4187                           ;main.c: 1419: (PORTA6 = 1);
  4188                           ;main.c: 1420: (PORTA4 = 1);
  4189  06A8  218C               	fcall	PL2	;call to abstracted procedure
  4190  06A9  30EC               	movlw	236
  4191                           
  4192                           ;main.c: 1421: B_OnOff_Flag = 0;
  4193  06AA  1335               	bcf	_B_OnOff_Flag/(0+8),_B_OnOff_Flag& (0+7)
  4194                           
  4195                           ;main.c: 1422: B_LowPower_Flag = 0;
  4196  06AB  12B5               	bcf	_B_LowPower_Flag/(0+8),_B_LowPower_Flag& (0+7)
  4197                           
  4198                           ;main.c: 1423: g_gear = 0;
  4199  06AC  01A2               	clrf	_g_gear
  4200                           
  4201                           ;main.c: 1424: g_warn_flash = 0;
  4202  06AD  01A0               	clrf	_g_warn_flash
  4203                           
  4204                           ;main.c: 1425: g_warn_cnt = 0;
  4205  06AE  1683               	bsf	3,5	;RP0=1, select bank1
  4206  06AF  01B2               	clrf	_g_warn_cnt^(0+128)
  4207                           
  4208                           ;main.c: 1426: g_warn_led = 0;
  4209  06B0  1283               	bcf	3,5	;RP0=0, select bank0
  4210  06B1  019F               	clrf	_g_warn_led
  4211                           
  4212                           ;main.c: 1427: g_warn_blink = 0;
  4213  06B2  10B5               	bcf	_g_warn_blink/(0+8),_g_warn_blink& (0+7)
  4214                           
  4215                           ;main.c: 1428: g_offshow_flag = 0;
  4216                           ;main.c: 1429: g_offshow_ms = 0;
  4217                           ;main.c: 1430: g_slave_charging = 0;
  4218  06B3  219B               	fcall	PL12	;call to abstracted procedure
  4219  06B4  1235               	bcf	_g_slave_charging/(0+8),_g_slave_charging& (0+7)
  4220                           
  4221                           ;main.c: 1431: g_slave_chargefull = 0;
  4222  06B5  11B5               	bcf	_g_slave_chargefull/(0+8),_g_slave_chargefull& (0+7)
  4223                           
  4224                           ;main.c: 1432: g_slave_alive_ms = 0;
  4225  06B6  1683               	bsf	3,5	;RP0=1, select bank1
  4226  06B7  0198               	clrf	_g_slave_alive_ms^(0+128)
  4227  06B8  0199               	clrf	(_g_slave_alive_ms+1)^(0+128)
  4228                           
  4229                           ;main.c: 1433: g_k1_prev = 0;
  4230  06B9  1283               	bcf	3,5	;RP0=0, select bank0
  4231  06BA  019E               	clrf	_g_k1_prev
  4232                           
  4233                           ;main.c: 1434: g_k2_prev = 0;
  4234  06BB  1683               	bsf	3,5	;RP0=1, select bank1
  4235  06BC  01B3               	clrf	_g_k2_prev^(0+128)
  4236                           
  4237                           ;main.c: 1435: g_k2_hold_ms = 0;
  4238  06BD  1283               	bcf	3,5	;RP0=0, select bank0
  4239  06BE  0194               	clrf	_g_k2_hold_ms
  4240  06BF  0195               	clrf	_g_k2_hold_ms+1
  4241                           
  4242                           ;main.c: 1436: B_KEYHX_Flag = 0;
  4243  06C0  1135               	bcf	_B_KEYHX_Flag/(0+8),_B_KEYHX_Flag& (0+7)
  4244                           
  4245                           ;main.c: 1437: kcomm_state = 0;
  4246  06C1  01A8               	clrf	_kcomm_state
  4247                           
  4248                           ;main.c: 1438: kcomm_turn = 0;
  4249  06C2  1683               	bsf	3,5	;RP0=1, select bank1
  4250  06C3  01B8               	clrf	_kcomm_turn^(0+128)
  4251                           
  4252                           ;main.c: 1439: kcomm_timer = 0;
  4253  06C4  1283               	bcf	3,5	;RP0=0, select bank0
  4254  06C5  0198               	clrf	_kcomm_timer
  4255  06C6  0199               	clrf	_kcomm_timer+1
  4256                           
  4257                           ;main.c: 1440: kcomm_cycle = 0;
  4258  06C7  1683               	bsf	3,5	;RP0=1, select bank1
  4259  06C8  01B7               	clrf	_kcomm_cycle^(0+128)
  4260                           
  4261                           ;main.c: 1441: kcomm_wakeup = 0;
  4262  06C9  1283               	bcf	3,5	;RP0=0, select bank0
  4263                           
  4264                           ;main.c: 1442: kcomm_wakeup_cnt= 0;
  4265                           ;main.c: 1443: kcomm_low_cnt = 0;
  4266                           ;main.c: 1444: kcomm_rx_done = 0;
  4267  06CA  22F8               	fcall	PL10	;call to abstracted procedure
  4268  06CB  01A6               	clrf	_kcomm_rx_done
  4269                           
  4270                           ;main.c: 1445: kcomm_tx_done = 0;
  4271  06CC  1683               	bsf	3,5	;RP0=1, select bank1
  4272  06CD  01B5               	clrf	_kcomm_tx_done^(0+128)
  4273                           
  4274                           ;main.c: 1446: level = 0;
  4275  06CE  1283               	bcf	3,5	;RP0=0, select bank0
  4276  06CF  019D               	clrf	_level
  4277                           
  4278                           ;main.c: 1447: g_vdd_adc = 3308u;
  4279  06D0  0090               	movwf	_g_vdd_adc
  4280  06D1  300C               	movlw	12
  4281  06D2  0091               	movwf	_g_vdd_adc+1
  4282  06D3  0008               	return
  4283  06D4                     __end_of_Flag_AllClear:	
  4284                           
  4285                           	psect	text20
  4286  079C                     __ptext20:	
  4287  079C                     _Delay_Init:	
  4288 ;; *************** function _Delay_Init *****************
  4289 ;; Defined at:
  4290 ;;		line 206 in file "main.c"
  4291 ;; Parameters:    Size  Location     Type
  4292 ;;  Delay_Duty      2    8[BANK0 ] unsigned int 
  4293 ;; Auto vars:     Size  Location     Type
  4294 ;;  i               2   10[BANK0 ] unsigned int 
  4295 ;; Return value:  Size  Location     Type
  4296 ;;                  1    wreg      void 
  4297 ;; Registers used:
  4298 ;;		wreg, status,2, status,0
  4299 ;; Tracked objects:
  4300 ;;		On entry : 100/0
  4301 ;;		On exit  : 100/0
  4302 ;;		Unchanged: 0/0
  4303 ;; Data sizes:     COMMON   BANK0   BANK1
  4304 ;;      Params:         0       2       0
  4305 ;;      Locals:         0       2       0
  4306 ;;      Temps:          0       0       0
  4307 ;;      Totals:         0       4       0
  4308 ;;Total ram usage:        4 bytes
  4309 ;; Hardware stack levels used:    1
  4310 ;; Hardware stack levels required when called:    3
  4311 ;; This function calls:
  4312 ;;		Nothing
  4313 ;; This function is called by:
  4314 ;;		_main
  4315 ;; This function uses a non-reentrant model
  4316 ;;
  4317                           ;psect for function _Delay_Init
  4318                           
  4319                           
  4320                           ;main.c: 208: unsigned int i;
  4321                           ;main.c: 210: for(i = 0; i <= Delay_Duty; i ++)
  4322                           ;incstack = 0
  4323                           ; Regs used in _Delay_Init: [wreg+status,2+status,0]
  4324  079C  01B3               	clrf	Delay_Init@i
  4325  079D  01B4               	clrf	Delay_Init@i+1
  4326  079E                     l3920:	
  4327  079E  0834               	movf	Delay_Init@i+1,w
  4328  079F  0232               	subwf	Delay_Init@Delay_Duty+1,w
  4329  07A0  1D03               	btfss	3,2
  4330  07A1  2FA4               	goto	u2615
  4331  07A2  0833               	movf	Delay_Init@i,w
  4332  07A3  0231               	subwf	Delay_Init@Delay_Duty,w
  4333  07A4                     u2615:	
  4334  07A4  1C03               	btfss	3,0
  4335  07A5  0008               	return
  4336  07A6  0064               	clrwdt	;# 
  4337  07A7  1283               	bcf	3,5	;RP0=0, select bank0
  4338  07A8  0AB3               	incf	Delay_Init@i,f
  4339  07A9  1903               	btfsc	3,2
  4340  07AA  0AB4               	incf	Delay_Init@i+1,f
  4341  07AB  2F9E               	goto	l3920
  4342  07AC                     __end_of_Delay_Init:	
  4343                           
  4344                           	psect	text21
  4345  06F7                     __ptext21:	
  4346  06F7                     _Comm_Process:	
  4347 ;; *************** function _Comm_Process *****************
  4348 ;; Defined at:
  4349 ;;		line 1390 in file "main.c"
  4350 ;; Parameters:    Size  Location     Type
  4351 ;;		None
  4352 ;; Auto vars:     Size  Location     Type
  4353 ;;  rx_ok           1    0[BANK1 ] unsigned char 
  4354 ;; Return value:  Size  Location     Type
  4355 ;;                  1    wreg      void 
  4356 ;; Registers used:
  4357 ;;		wreg, status,2, status,0, pclath, cstack
  4358 ;; Tracked objects:
  4359 ;;		On entry : 0/0
  4360 ;;		On exit  : 0/0
  4361 ;;		Unchanged: 0/0
  4362 ;; Data sizes:     COMMON   BANK0   BANK1
  4363 ;;      Params:         0       0       0
  4364 ;;      Locals:         0       0       1
  4365 ;;      Temps:          0       0       0
  4366 ;;      Totals:         0       0       1
  4367 ;;Total ram usage:        1 bytes
  4368 ;; Hardware stack levels used:    1
  4369 ;; Hardware stack levels required when called:    4
  4370 ;; This function calls:
  4371 ;;		_comm_parse_rx
  4372 ;; This function is called by:
  4373 ;;		_main
  4374 ;; This function uses a non-reentrant model
  4375 ;;
  4376                           ;psect for function _Comm_Process
  4377                           
  4378                           
  4379                           ;main.c: 1392: unsigned char rx_ok;
  4380                           ;main.c: 1394: if(kcomm_tx_done == 1)
  4381                           ;incstack = 0
  4382                           ; Regs used in _Comm_Process: [wreg+status,2+status,0+pclath+cstack]
  4383  06F7  1683               	bsf	3,5	;RP0=1, select bank1
  4384  06F8  0B35               	decfsz	_kcomm_tx_done^(0+128),w
  4385  06F9  2EFB               	goto	l5716
  4386                           
  4387                           ;main.c: 1395: {
  4388                           ;main.c: 1396: kcomm_tx_done = 0;
  4389  06FA  01B5               	clrf	_kcomm_tx_done^(0+128)
  4390  06FB                     l5716:	
  4391                           
  4392                           ;main.c: 1397: }
  4393                           ;main.c: 1399: if(kcomm_rx_done == 1)
  4394  06FB  1283               	bcf	3,5	;RP0=0, select bank0
  4395  06FC  0B26               	decfsz	_kcomm_rx_done,w
  4396  06FD  2F14               	goto	l5732
  4397                           
  4398                           ;main.c: 1400: {
  4399                           ;main.c: 1401: kcomm_rx_done = 0;
  4400  06FE  01A6               	clrf	_kcomm_rx_done
  4401                           
  4402                           ;main.c: 1402: rx_ok = comm_parse_rx(kcomm_rx_buf);
  4403  06FF  1683               	bsf	3,5	;RP0=1, select bank1
  4404  0700  0839               	movf	_kcomm_rx_buf^(0+128),w
  4405  0701  26D4               	fcall	_comm_parse_rx
  4406  0702  1683               	bsf	3,5	;RP0=1, select bank1
  4407  0703  00BC               	movwf	Comm_Process@rx_ok^(0+128)
  4408                           
  4409                           ;main.c: 1403: if(rx_ok)
  4410  0704  083C               	movf	Comm_Process@rx_ok^(0+128),w
  4411  0705  1903               	btfsc	3,2
  4412  0706  2F0A               	goto	l5726
  4413                           
  4414                           ;main.c: 1404: g_slave_alive_ms = 200;
  4415  0707  30C8               	movlw	200
  4416  0708  0098               	movwf	_g_slave_alive_ms^(0+128)
  4417  0709  0199               	clrf	(_g_slave_alive_ms+1)^(0+128)
  4418  070A                     l5726:	
  4419                           
  4420                           ;main.c: 1405: if(g_slave_charging || g_slave_chargefull)
  4421  070A  1283               	bcf	3,5	;RP0=0, select bank0
  4422  070B  1A35               	btfsc	_g_slave_charging/(0+8),_g_slave_charging& (0+7)
  4423  070C  2F0F               	goto	l5730
  4424  070D  1DB5               	btfss	_g_slave_chargefull/(0+8),_g_slave_chargefull& (0+7)
  4425  070E  0008               	return
  4426  070F                     l5730:	
  4427                           
  4428                           ;main.c: 1406: g_slave_alive_ms = 200;
  4429  070F  30C8               	movlw	200
  4430  0710  1683               	bsf	3,5	;RP0=1, select bank1
  4431  0711  0098               	movwf	_g_slave_alive_ms^(0+128)
  4432  0712  0199               	clrf	(_g_slave_alive_ms+1)^(0+128)
  4433  0713  0008               	return
  4434  0714                     l5732:	
  4435                           
  4436                           ;main.c: 1408: else if(kcomm_rx_done == 0xFF)
  4437  0714  0F26               	incfsz	_kcomm_rx_done,w
  4438  0715  0008               	return
  4439                           
  4440                           ;main.c: 1409: {
  4441                           ;main.c: 1410: kcomm_rx_done = 0;
  4442  0716  01A6               	clrf	_kcomm_rx_done
  4443  0717  0008               	return
  4444  0718                     __end_of_Comm_Process:	
  4445                           
  4446                           	psect	text22
  4447  06D4                     __ptext22:	
  4448  06D4                     _comm_parse_rx:	
  4449 ;; *************** function _comm_parse_rx *****************
  4450 ;; Defined at:
  4451 ;;		line 1112 in file "main.c"
  4452 ;; Parameters:    Size  Location     Type
  4453 ;;  raw             1    wreg     unsigned char 
  4454 ;; Auto vars:     Size  Location     Type
  4455 ;;  raw             1   10[BANK0 ] unsigned char 
  4456 ;;  lo              1   11[BANK0 ] unsigned char 
  4457 ;;  hi              1    9[BANK0 ] unsigned char 
  4458 ;;  check           1    8[BANK0 ] unsigned char 
  4459 ;; Return value:  Size  Location     Type
  4460 ;;                  1    wreg      unsigned char 
  4461 ;; Registers used:
  4462 ;;		wreg, status,2, status,0
  4463 ;; Tracked objects:
  4464 ;;		On entry : 100/100
  4465 ;;		On exit  : 100/0
  4466 ;;		Unchanged: 0/0
  4467 ;; Data sizes:     COMMON   BANK0   BANK1
  4468 ;;      Params:         0       0       0
  4469 ;;      Locals:         0       4       0
  4470 ;;      Temps:          0       0       0
  4471 ;;      Totals:         0       4       0
  4472 ;;Total ram usage:        4 bytes
  4473 ;; Hardware stack levels used:    1
  4474 ;; Hardware stack levels required when called:    3
  4475 ;; This function calls:
  4476 ;;		Nothing
  4477 ;; This function is called by:
  4478 ;;		_Comm_Process
  4479 ;; This function uses a non-reentrant model
  4480 ;;
  4481                           ;psect for function _comm_parse_rx
  4482                           
  4483                           
  4484                           ;incstack = 0
  4485                           ; Regs used in _comm_parse_rx: [wreg+status,2+status,0]
  4486                           ;comm_parse_rx@raw stored from wreg
  4487  06D4  1283               	bcf	3,5	;RP0=0, select bank0
  4488  06D5  00B3               	movwf	comm_parse_rx@raw
  4489                           
  4490                           ;main.c: 1114: unsigned char lo;
  4491                           ;main.c: 1115: unsigned char hi;
  4492                           ;main.c: 1116: unsigned char check;
  4493                           ;main.c: 1118: lo = raw & 0x0F;
  4494  06D6  00B4               	movwf	comm_parse_rx@lo
  4495  06D7  300F               	movlw	15
  4496  06D8  05B4               	andwf	comm_parse_rx@lo,f
  4497                           
  4498                           ;main.c: 1119: hi = (raw >> 4) & 0x0F;
  4499  06D9  0E33               	swapf	comm_parse_rx@raw,w
  4500  06DA  390F               	andlw	15
  4501  06DB  00B2               	movwf	comm_parse_rx@hi
  4502  06DC  300F               	movlw	15
  4503  06DD  05B2               	andwf	comm_parse_rx@hi,f
  4504                           
  4505                           ;main.c: 1120: check = lo + hi;
  4506  06DE  0832               	movf	comm_parse_rx@hi,w
  4507  06DF  0734               	addwf	comm_parse_rx@lo,w
  4508  06E0  00B1               	movwf	comm_parse_rx@check
  4509                           
  4510                           ;main.c: 1122: if(check != 0x0F)
  4511  06E1  3A0F               	xorlw	15
  4512  06E2  1D03               	btfss	3,2
  4513                           
  4514                           ;main.c: 1123: return 0;
  4515  06E3  3400               	retlw	0
  4516                           
  4517                           ;main.c: 1125: if(lo == 0x0C || lo == 0x0D)
  4518  06E4  300C               	movlw	12
  4519  06E5  0634               	xorwf	comm_parse_rx@lo,w
  4520  06E6  1903               	btfsc	3,2
  4521  06E7  2EEC               	goto	l1307
  4522  06E8  300D               	movlw	13
  4523  06E9  0634               	xorwf	comm_parse_rx@lo,w
  4524  06EA  1D03               	btfss	3,2
  4525  06EB  2EEE               	goto	l1305
  4526  06EC                     l1307:	
  4527                           
  4528                           ;main.c: 1126: g_slave_charging = 1;
  4529  06EC  1635               	bsf	_g_slave_charging/(0+8),_g_slave_charging& (0+7)
  4530  06ED  2EEF               	goto	l5156
  4531  06EE                     l1305:	
  4532                           
  4533                           ;main.c: 1127: else
  4534                           ;main.c: 1128: g_slave_charging = 0;
  4535  06EE  1235               	bcf	_g_slave_charging/(0+8),_g_slave_charging& (0+7)
  4536  06EF                     l5156:	
  4537                           
  4538                           ;main.c: 1130: if(lo == 0x0D)
  4539  06EF  300D               	movlw	13
  4540  06F0  0634               	xorwf	comm_parse_rx@lo,w
  4541  06F1  1D03               	btfss	3,2
  4542  06F2  2EF5               	goto	l1309
  4543                           
  4544                           ;main.c: 1131: g_slave_chargefull = 1;
  4545  06F3  15B5               	bsf	_g_slave_chargefull/(0+8),_g_slave_chargefull& (0+7)
  4546  06F4  3401               	retlw	1
  4547  06F5                     l1309:	
  4548                           
  4549                           ;main.c: 1132: else
  4550                           ;main.c: 1133: g_slave_chargefull = 0;
  4551  06F5  11B5               	bcf	_g_slave_chargefull/(0+8),_g_slave_chargefull& (0+7)
  4552                           
  4553                           ;main.c: 1135: return 1;
  4554  06F6  3401               	retlw	1
  4555  06F7                     __end_of_comm_parse_rx:	
  4556                           
  4557                           	psect	text23
  4558  0572                     __ptext23:	
  4559  0572                     _Timer1_Isr:	
  4560 ;; *************** function _Timer1_Isr *****************
  4561 ;; Defined at:
  4562 ;;		line 1507 in file "main.c"
  4563 ;; Parameters:    Size  Location     Type
  4564 ;;		None
  4565 ;; Auto vars:     Size  Location     Type
  4566 ;;		None
  4567 ;; Return value:  Size  Location     Type
  4568 ;;                  1    wreg      void 
  4569 ;; Registers used:
  4570 ;;		wreg, fsr0l, fsr0h, status,2, status,0, pclath, cstack
  4571 ;; Tracked objects:
  4572 ;;		On entry : 0/0
  4573 ;;		On exit  : 100/0
  4574 ;;		Unchanged: 0/0
  4575 ;; Data sizes:     COMMON   BANK0   BANK1
  4576 ;;      Params:         0       0       0
  4577 ;;      Locals:         0       0       0
  4578 ;;      Temps:          0       3       0
  4579 ;;      Totals:         0       3       0
  4580 ;;Total ram usage:        3 bytes
  4581 ;; Hardware stack levels used:    1
  4582 ;; Hardware stack levels required when called:    2
  4583 ;; This function calls:
  4584 ;;		_Kcomm_ISR
  4585 ;; This function is called by:
  4586 ;;		Interrupt level 1
  4587 ;; This function uses a non-reentrant model
  4588 ;;
  4589                           ;psect for function _Timer1_Isr
  4590                           
  4591                           
  4592                           ;main.c: 1509: static unsigned char timer_ms = 0;
  4593                           ;main.c: 1510: static unsigned char pwm_cnt = 0;
  4594                           ;main.c: 1512: if(T0IF == 1)
  4595  0572  1D8E               	btfss	14,3	;volatile
  4596  0573  2D80               	goto	i1l4866
  4597                           
  4598                           ;main.c: 1513: {
  4599                           ;main.c: 1514: T0IF = 0;
  4600  0574  118E               	bcf	14,3	;volatile
  4601                           
  4602                           ;main.c: 1515: T0 = 168;
  4603  0575  30A8               	movlw	168
  4604  0576  0081               	movwf	1	;volatile
  4605  0577  3014               	movlw	20
  4606                           
  4607                           ;main.c: 1516: timer_ms++;
  4608  0578  1683               	bsf	3,5	;RP0=1, select bank1
  4609  0579  0AA3               	incf	Timer1_Isr@timer_ms^(0+128),f
  4610                           
  4611                           ;main.c: 1518: if(timer_ms >= 20)
  4612  057A  0223               	subwf	Timer1_Isr@timer_ms^(0+128),w
  4613  057B  1C03               	btfss	3,0
  4614  057C  2D80               	goto	i1l4866
  4615                           
  4616                           ;main.c: 1519: {
  4617                           ;main.c: 1520: timer_ms = 0;
  4618  057D  01A3               	clrf	Timer1_Isr@timer_ms^(0+128)
  4619                           
  4620                           ;main.c: 1521: DIY_Flag1.OnrBit.b0 = 1;
  4621  057E  1283               	bcf	3,5	;RP0=0, select bank0
  4622  057F  1423               	bsf	_DIY_Flag1,0
  4623  0580                     i1l4866:	
  4624                           
  4625                           ;main.c: 1522: }
  4626                           ;main.c: 1523: }
  4627                           ;main.c: 1525: if(B_OnOff_Flag && g_gear == 6 && !g_slave_charging && !g_slave_chargeful
      +                          l)
  4628  0580  1283               	bcf	3,5	;RP0=0, select bank0
  4629  0581  1F35               	btfss	_B_OnOff_Flag/(0+8),_B_OnOff_Flag& (0+7)
  4630  0582  2D98               	goto	i1l4884
  4631  0583  3006               	movlw	6
  4632  0584  0622               	xorwf	_g_gear,w
  4633  0585  1903               	btfsc	3,2
  4634  0586  1A35               	btfsc	_g_slave_charging/(0+8),_g_slave_charging& (0+7)
  4635  0587  2D98               	goto	i1l4884
  4636  0588  19B5               	btfsc	_g_slave_chargefull/(0+8),_g_slave_chargefull& (0+7)
  4637  0589  2D98               	goto	i1l4884
  4638  058A  3032               	movlw	50
  4639                           
  4640                           ;main.c: 1526: {
  4641                           ;main.c: 1527: pwm_cnt++;
  4642  058B  1683               	bsf	3,5	;RP0=1, select bank1
  4643  058C  0AA2               	incf	Timer1_Isr@pwm_cnt^(0+128),f
  4644                           
  4645                           ;main.c: 1528: if(pwm_cnt >= 50) pwm_cnt = 0;
  4646  058D  0222               	subwf	Timer1_Isr@pwm_cnt^(0+128),w
  4647  058E  1803               	btfsc	3,0
  4648  058F  01A2               	clrf	Timer1_Isr@pwm_cnt^(0+128)
  4649                           
  4650                           ;main.c: 1530: if(pwm_cnt < g_overclock_pwm)
  4651  0590  0831               	movf	_g_overclock_pwm^(0+128),w
  4652  0591  0222               	subwf	Timer1_Isr@pwm_cnt^(0+128),w
  4653                           
  4654                           ;main.c: 1531: {
  4655                           ;main.c: 1532: (PORTB1 = 0); (PORTB0 = 0); (PORTA7 = 0); (PORTA6 = 0); (PORTA4 = 0);
  4656  0592  1283               	bcf	3,5	;RP0=0, select bank0
  4657  0593  1803               	btfsc	3,0
  4658  0594  2D97               	goto	L8
  4659  0595  25AD               	fcall	PL16	;call to abstracted procedure
  4660                           
  4661                           ;main.c: 1533: }
  4662  0596  2D98               	goto	i1l4884
  4663  0597                     L8:	
  4664                           
  4665                           ;main.c: 1534: else
  4666                           ;main.c: 1535: {
  4667                           ;main.c: 1536: (PORTB1 = 1); (PORTB0 = 1); (PORTA7 = 1); (PORTA6 = 1); (PORTA4 = 1);
  4668  0597  218C               	fcall	PL2	;call to abstracted procedure
  4669  0598                     i1l4884:	
  4670                           
  4671                           ;main.c: 1537: }
  4672                           ;main.c: 1538: }
  4673                           ;main.c: 1540: Kcomm_ISR();
  4674  0598  21A1               	fcall	_Kcomm_ISR
  4675                           
  4676                           ;main.c: 1541: T1IF = 0;
  4677  0599  1283               	bcf	3,5	;RP0=0, select bank0
  4678  059A  104B               	bcf	75,0	;volatile
  4679  059B  0830               	movf	??_Timer1_Isr+2,w
  4680  059C  008A               	movwf	10
  4681  059D  082F               	movf	??_Timer1_Isr+1,w
  4682  059E  0084               	movwf	4
  4683  059F  18AE               	btfsc	??_Timer1_Isr^0,1
  4684  05A0  2DA6               	goto	REV_BANK1
  4685  05A1  0E2E               	swapf	??_Timer1_Isr^0,w
  4686  05A2  0083               	movwf	3
  4687  05A3  0EBE               	swapf	62,f
  4688  05A4  0E3E               	swapf	62,w
  4689  05A5  0009               	retfie
  4690  05A6                     REV_BANK1:	
  4691  05A6  0E2E               	swapf	??_Timer1_Isr^0,w
  4692  05A7  0083               	movwf	3
  4693  05A8  1283               	bcf	3,5
  4694  05A9  0EBE               	swapf	62,f
  4695  05AA  0E3E               	swapf	62,w
  4696  05AB  1683               	bsf	3,5
  4697  05AC  0009               	retfie
  4698  05AD                     __end_of_Timer1_Isr:	
  4699  05AD                     PL16:	
  4700  05AD  1086               	bcf	6,1	;volatile
  4701  05AE  1006               	bcf	6,0	;volatile
  4702  05AF  1385               	bcf	5,7	;volatile
  4703  05B0  1305               	bcf	5,6	;volatile
  4704  05B1  1205               	bcf	5,4	;volatile
  4705  05B2  0008               	return
  4706  05B3                     __end_ofPL16:	
  4707                           
  4708                           	psect	intentry
  4709  0008                     __pintentry:	
  4710  0008                     interrupt_function:	
  4711                           ;incstack = 0
  4712                           ; Regs used in _Timer1_Isr: [wreg-fsr0h+status,2+status,0+pclath+cstack]
  4713                           
  4714  003E                     saved_w	set	btemp
  4715  0008  1A83               	btfsc	3,5
  4716  0009  280C               	goto	SAVE_BANK1
  4717  000A  00BE               	movwf	btemp
  4718  000B  280F               	goto	EXIT_BANK_SAVE
  4719  000C                     SAVE_BANK1:	
  4720  000C  1283               	bcf	3,5
  4721  000D  00BE               	movwf	btemp
  4722  000E  1683               	bsf	3,5
  4723  000F                     EXIT_BANK_SAVE:	
  4724  000F  0E03               	swapf	3,w
  4725  0010  1283               	bcf	3,5	;RP0=0, select bank0
  4726  0011  00AE               	movwf	??_Timer1_Isr
  4727  0012  0804               	movf	4,w
  4728  0013  00AF               	movwf	??_Timer1_Isr+1
  4729  0014  080A               	movf	10,w
  4730  0015  00B0               	movwf	??_Timer1_Isr+2
  4731  0016  2D72               	ljmp	_Timer1_Isr
  4732                           
  4733                           	psect	text24
  4734  01A1                     __ptext24:	
  4735  01A1                     _Kcomm_ISR:	
  4736 ;; *************** function _Kcomm_ISR *****************
  4737 ;; Defined at:
  4738 ;;		line 1140 in file "main.c"
  4739 ;; Parameters:    Size  Location     Type
  4740 ;;		None
  4741 ;; Auto vars:     Size  Location     Type
  4742 ;;		None
  4743 ;; Return value:  Size  Location     Type
  4744 ;;                  1    wreg      void 
  4745 ;; Registers used:
  4746 ;;		wreg, fsr0l, fsr0h, status,2, status,0, pclath, cstack
  4747 ;; Tracked objects:
  4748 ;;		On entry : 100/0
  4749 ;;		On exit  : 0/0
  4750 ;;		Unchanged: 0/0
  4751 ;; Data sizes:     COMMON   BANK0   BANK1
  4752 ;;      Params:         0       0       0
  4753 ;;      Locals:         0       2       0
  4754 ;;      Temps:          0       0       0
  4755 ;;      Totals:         0       2       0
  4756 ;;Total ram usage:        2 bytes
  4757 ;; Hardware stack levels used:    1
  4758 ;; Hardware stack levels required when called:    1
  4759 ;; This function calls:
  4760 ;;		_comm_pack_tx
  4761 ;; This function is called by:
  4762 ;;		_Timer1_Isr
  4763 ;; This function uses a non-reentrant model
  4764 ;;
  4765                           ;psect for function _Kcomm_ISR
  4766                           
  4767                           
  4768                           ;main.c: 1142: static unsigned char bit_wait_fall;
  4769                           ;main.c: 1143: kcomm_timer++;
  4770                           ;incstack = 0
  4771                           ; Regs used in _Kcomm_ISR: [wreg-fsr0h+status,2+status,0+pclath+cstack]
  4772  01A1  0A98               	incf	_kcomm_timer,f
  4773  01A2  1903               	btfsc	3,2
  4774  01A3  0A99               	incf	_kcomm_timer+1,f
  4775                           
  4776                           ;main.c: 1145: if(kcomm_wakeup)
  4777  01A4  0825               	movf	_kcomm_wakeup,w
  4778  01A5  1903               	btfsc	3,2
  4779  01A6  29C3               	goto	i1l4578
  4780                           
  4781                           ;main.c: 1146: {
  4782                           ;main.c: 1147: kcomm_wakeup_cnt++;
  4783  01A7  1683               	bsf	3,5	;RP0=1, select bank1
  4784  01A8  0A9E               	incf	_kcomm_wakeup_cnt^(0+128),f
  4785  01A9  1903               	btfsc	3,2
  4786  01AA  0A9F               	incf	(_kcomm_wakeup_cnt+1)^(0+128),f
  4787                           
  4788                           ;main.c: 1148: if(kcomm_wakeup_cnt == 1)
  4789  01AB  031E               	decf	_kcomm_wakeup_cnt^(0+128),w
  4790  01AC  041F               	iorwf	(_kcomm_wakeup_cnt+1)^(0+128),w
  4791  01AD  1D03               	btfss	3,2
  4792  01AE  29B2               	goto	i1l4568
  4793                           
  4794                           ;main.c: 1149: {
  4795                           ;main.c: 1150: do { TRISB6 = 0; } while(0);
  4796  01AF  1283               	bcf	3,5	;RP0=0, select bank0
  4797  01B0  1346               	bcf	70,6	;volatile
  4798                           
  4799                           ;main.c: 1151: PORTB6 = 1;
  4800  01B1  1706               	bsf	6,6	;volatile
  4801  01B2                     i1l4568:	
  4802                           
  4803                           ;main.c: 1152: }
  4804                           ;main.c: 1153: if(kcomm_wakeup_cnt >= 1000u)
  4805  01B2  3003               	movlw	3
  4806  01B3  1683               	bsf	3,5	;RP0=1, select bank1
  4807  01B4  021F               	subwf	(_kcomm_wakeup_cnt+1)^(0+128),w
  4808  01B5  30E8               	movlw	232
  4809  01B6  1903               	btfsc	3,2
  4810  01B7  021E               	subwf	_kcomm_wakeup_cnt^(0+128),w
  4811  01B8  1C03               	btfss	3,0
  4812  01B9  0008               	return
  4813                           
  4814                           ;main.c: 1154: {
  4815                           ;main.c: 1155: PORTB6 = 0;
  4816  01BA  1283               	bcf	3,5	;RP0=0, select bank0
  4817  01BB  1306               	bcf	6,6	;volatile
  4818                           
  4819                           ;main.c: 1156: do { TRISB6 = 1; } while(0);
  4820  01BC  1746               	bsf	70,6	;volatile
  4821  01BD  30C3               	movlw	195
  4822                           
  4823                           ;main.c: 1157: kcomm_wakeup = 0;
  4824                           ;main.c: 1158: kcomm_wakeup_cnt = 0;
  4825                           ;main.c: 1159: kcomm_low_cnt = 0;
  4826                           ;main.c: 1160: kcomm_state = 0;
  4827  01BE  22F8               	fcall	PL10	;call to abstracted procedure
  4828  01BF  01A8               	clrf	_kcomm_state
  4829                           
  4830                           ;main.c: 1161: kcomm_cycle = 195;
  4831  01C0  1683               	bsf	3,5	;RP0=1, select bank1
  4832  01C1  00B7               	movwf	_kcomm_cycle^(0+128)
  4833  01C2  0008               	return
  4834  01C3                     i1l4578:	
  4835                           
  4836                           ;main.c: 1164: }
  4837                           ;main.c: 1167: if(kcomm_state == 0)
  4838  01C3  0828               	movf	_kcomm_state,w
  4839  01C4  1D03               	btfss	3,2
  4840  01C5  2AE9               	goto	i1l4750
  4841                           
  4842                           ;main.c: 1168: {
  4843                           ;main.c: 1169: kcomm_cycle++;
  4844  01C6  1683               	bsf	3,5	;RP0=1, select bank1
  4845  01C7  0AB7               	incf	_kcomm_cycle^(0+128),f
  4846                           
  4847                           ;main.c: 1171: if(!((PORTB & 0x40) ? 1 : 0))
  4848  01C8  1283               	bcf	3,5	;RP0=0, select bank0
  4849  01C9  1B06               	btfsc	6,6	;volatile
  4850  01CA  29F0               	goto	i1l4602
  4851                           
  4852                           ;main.c: 1172: {
  4853                           ;main.c: 1173: if(kcomm_low_cnt < 1000)
  4854  01CB  3003               	movlw	3
  4855  01CC  1683               	bsf	3,5	;RP0=1, select bank1
  4856  01CD  0221               	subwf	(_kcomm_low_cnt+1)^(0+128),w
  4857  01CE  30E8               	movlw	232
  4858  01CF  1903               	btfsc	3,2
  4859  01D0  0220               	subwf	_kcomm_low_cnt^(0+128),w
  4860  01D1  1803               	btfsc	3,0
  4861  01D2  29D6               	goto	i1l4588
  4862                           
  4863                           ;main.c: 1174: kcomm_low_cnt++;
  4864  01D3  0AA0               	incf	_kcomm_low_cnt^(0+128),f
  4865  01D4  1903               	btfsc	3,2
  4866  01D5  0AA1               	incf	(_kcomm_low_cnt+1)^(0+128),f
  4867  01D6                     i1l4588:	
  4868                           
  4869                           ;main.c: 1177: if(kcomm_low_cnt >= 1000)
  4870  01D6  3003               	movlw	3
  4871  01D7  0221               	subwf	(_kcomm_low_cnt+1)^(0+128),w
  4872  01D8  30E8               	movlw	232
  4873  01D9  1903               	btfsc	3,2
  4874  01DA  0220               	subwf	_kcomm_low_cnt^(0+128),w
  4875  01DB  1C03               	btfss	3,0
  4876  01DC  29F3               	goto	i1l4604
  4877                           
  4878                           ;main.c: 1178: {
  4879                           ;main.c: 1179: kcomm_low_cnt = 1000;
  4880  01DD  30E8               	movlw	232
  4881  01DE  00A0               	movwf	_kcomm_low_cnt^(0+128)
  4882  01DF  3003               	movlw	3
  4883  01E0  00A1               	movwf	(_kcomm_low_cnt^(0+128)+1)
  4884                           
  4885                           ;main.c: 1181: if(kcomm_wakeup == 0)
  4886  01E1  1283               	bcf	3,5	;RP0=0, select bank0
  4887  01E2  0825               	movf	_kcomm_wakeup,w
  4888  01E3  1D03               	btfss	3,2
  4889  01E4  29F3               	goto	i1l4604
  4890                           
  4891                           ;main.c: 1182: {
  4892                           ;main.c: 1183: if(B_OnOff_Flag || g_slave_charging || g_slave_chargefull)
  4893  01E5  1F35               	btfss	_B_OnOff_Flag/(0+8),_B_OnOff_Flag& (0+7)
  4894  01E6  1A35               	btfsc	_g_slave_charging/(0+8),_g_slave_charging& (0+7)
  4895  01E7  29EA               	goto	i1l1330
  4896  01E8  1DB5               	btfss	_g_slave_chargefull/(0+8),_g_slave_chargefull& (0+7)
  4897  01E9  29F3               	goto	i1l4604
  4898  01EA                     i1l1330:	
  4899                           
  4900                           ;main.c: 1184: {
  4901                           ;main.c: 1185: kcomm_wakeup = 1;
  4902  01EA  01A5               	clrf	_kcomm_wakeup
  4903  01EB  0AA5               	incf	_kcomm_wakeup,f
  4904                           
  4905                           ;main.c: 1186: kcomm_wakeup_cnt = 0;
  4906  01EC  1683               	bsf	3,5	;RP0=1, select bank1
  4907  01ED  019E               	clrf	_kcomm_wakeup_cnt^(0+128)
  4908  01EE  019F               	clrf	(_kcomm_wakeup_cnt+1)^(0+128)
  4909                           
  4910                           ;main.c: 1187: }
  4911                           ;main.c: 1188: }
  4912                           ;main.c: 1189: }
  4913                           ;main.c: 1190: }
  4914  01EF  29F3               	goto	i1l4604
  4915  01F0                     i1l4602:	
  4916                           
  4917                           ;main.c: 1191: else
  4918                           ;main.c: 1192: {
  4919                           ;main.c: 1193: kcomm_low_cnt = 0;
  4920  01F0  1683               	bsf	3,5	;RP0=1, select bank1
  4921  01F1  01A0               	clrf	_kcomm_low_cnt^(0+128)
  4922  01F2  01A1               	clrf	(_kcomm_low_cnt+1)^(0+128)
  4923  01F3                     i1l4604:	
  4924                           
  4925                           ;main.c: 1194: }
  4926                           ;main.c: 1197: if(kcomm_cycle >= 200)
  4927  01F3  30C8               	movlw	200
  4928  01F4  1683               	bsf	3,5	;RP0=1, select bank1
  4929  01F5  0237               	subwf	_kcomm_cycle^(0+128),w
  4930  01F6  1C03               	btfss	3,0
  4931  01F7  0008               	return
  4932                           
  4933                           ;main.c: 1198: {
  4934                           ;main.c: 1199: kcomm_cycle = 0;
  4935  01F8  01B7               	clrf	_kcomm_cycle^(0+128)
  4936                           
  4937                           ;main.c: 1201: if(kcomm_turn == 0)
  4938  01F9  0838               	movf	_kcomm_turn^(0+128),w
  4939  01FA  1D03               	btfss	3,2
  4940  01FB  2A0B               	goto	i1l4624
  4941                           
  4942                           ;main.c: 1202: {
  4943                           ;main.c: 1204: kcomm_tx_buf = comm_pack_tx();
  4944  01FC  2777               	fcall	_comm_pack_tx
  4945  01FD  1683               	bsf	3,5	;RP0=1, select bank1
  4946  01FE  00BB               	movwf	_kcomm_tx_buf^(0+128)
  4947                           
  4948                           ;main.c: 1205: kcomm_bit_idx = 0;
  4949  01FF  1283               	bcf	3,5	;RP0=0, select bank0
  4950  0200  01A7               	clrf	_kcomm_bit_idx
  4951                           
  4952                           ;main.c: 1206: kcomm_timer = 0;
  4953  0201  0198               	clrf	_kcomm_timer
  4954  0202  0199               	clrf	_kcomm_timer+1
  4955                           
  4956                           ;main.c: 1207: kcomm_tx_done = 0;
  4957  0203  1683               	bsf	3,5	;RP0=1, select bank1
  4958  0204  01B5               	clrf	_kcomm_tx_done^(0+128)
  4959  0205  1283               	bcf	3,5	;RP0=0, select bank0
  4960  0206  1346               	bcf	70,6	;volatile
  4961                           
  4962                           ;main.c: 1209: PORTB6 = 1;
  4963  0207  1706               	bsf	6,6	;volatile
  4964                           
  4965                           ;main.c: 1210: kcomm_state = 1;
  4966  0208  01A8               	clrf	_kcomm_state
  4967  0209  0AA8               	incf	_kcomm_state,f
  4968                           
  4969                           ;main.c: 1211: }
  4970  020A  0008               	return
  4971  020B                     i1l4624:	
  4972                           
  4973                           ;main.c: 1212: else
  4974                           ;main.c: 1213: {
  4975                           ;main.c: 1215: kcomm_rx_buf = 0;
  4976  020B  01B9               	clrf	_kcomm_rx_buf^(0+128)
  4977                           
  4978                           ;main.c: 1216: kcomm_bit_idx = 0;
  4979  020C  1283               	bcf	3,5	;RP0=0, select bank0
  4980  020D  01A7               	clrf	_kcomm_bit_idx
  4981                           
  4982                           ;main.c: 1217: kcomm_timer = 0;
  4983  020E  0198               	clrf	_kcomm_timer
  4984  020F  0199               	clrf	_kcomm_timer+1
  4985                           
  4986                           ;main.c: 1218: kcomm_rx_done = 0;
  4987  0210  01A6               	clrf	_kcomm_rx_done
  4988  0211  1346               	bcf	70,6	;volatile
  4989                           
  4990                           ;main.c: 1220: PORTB6 = 1;
  4991  0212  1706               	bsf	6,6	;volatile
  4992                           
  4993                           ;main.c: 1221: kcomm_state = 5;
  4994  0213  3005               	movlw	5
  4995  0214  00A8               	movwf	_kcomm_state
  4996  0215  0008               	return
  4997  0216                     i1l4634:	
  4998                           
  4999                           ;main.c: 1230: if(kcomm_timer >= 20)
  5000  0216  3000               	movlw	0
  5001  0217  0219               	subwf	_kcomm_timer+1,w
  5002  0218  3014               	movlw	20
  5003  0219  1903               	btfsc	3,2
  5004  021A  0218               	subwf	_kcomm_timer,w
  5005  021B  1C03               	btfss	3,0
  5006  021C  2A23               	goto	i1l1341
  5007                           
  5008                           ;main.c: 1231: {
  5009                           ;main.c: 1232: kcomm_timer = 0;
  5010  021D  0198               	clrf	_kcomm_timer
  5011  021E  0199               	clrf	_kcomm_timer+1
  5012                           
  5013                           ;main.c: 1233: PORTB6 = 0;
  5014  021F  1306               	bcf	6,6	;volatile
  5015                           
  5016                           ;main.c: 1234: kcomm_state = 2;
  5017  0220  3002               	movlw	2
  5018  0221  00A8               	movwf	_kcomm_state
  5019                           
  5020                           ;main.c: 1235: }
  5021  0222  0008               	return
  5022  0223                     i1l1341:	
  5023                           
  5024                           ;main.c: 1236: else
  5025                           ;main.c: 1237: {
  5026                           ;main.c: 1238: PORTB6 = 1;
  5027  0223  1706               	bsf	6,6	;volatile
  5028  0224  0008               	return
  5029  0225                     i1l4642:	
  5030                           
  5031                           ;main.c: 1243: if(kcomm_timer >= 10)
  5032  0225  3000               	movlw	0
  5033  0226  0219               	subwf	_kcomm_timer+1,w
  5034  0227  300A               	movlw	10
  5035  0228  1903               	btfsc	3,2
  5036  0229  0218               	subwf	_kcomm_timer,w
  5037  022A  1C03               	btfss	3,0
  5038  022B  0008               	return
  5039                           
  5040                           ;main.c: 1244: {
  5041                           ;main.c: 1245: kcomm_timer = 0;
  5042  022C  0198               	clrf	_kcomm_timer
  5043  022D  0199               	clrf	_kcomm_timer+1
  5044                           
  5045                           ;main.c: 1246: kcomm_tx_shift = kcomm_tx_buf;
  5046  022E  1683               	bsf	3,5	;RP0=1, select bank1
  5047  022F  083B               	movf	_kcomm_tx_buf^(0+128),w
  5048  0230  00BA               	movwf	_kcomm_tx_shift^(0+128)
  5049                           
  5050                           ;main.c: 1247: kcomm_bit_idx = 0;
  5051  0231  1283               	bcf	3,5	;RP0=0, select bank0
  5052  0232  01A7               	clrf	_kcomm_bit_idx
  5053                           
  5054                           ;main.c: 1248: PORTB6 = 1;
  5055  0233  1706               	bsf	6,6	;volatile
  5056                           
  5057                           ;main.c: 1249: kcomm_state = 3;
  5058  0234  3003               	movlw	3
  5059  0235  00A8               	movwf	_kcomm_state
  5060  0236  0008               	return
  5061  0237                     i1l4652:	
  5062                           
  5063                           ;main.c: 1256: if(kcomm_timer >= 14)
  5064  0237  3000               	movlw	0
  5065  0238  0219               	subwf	_kcomm_timer+1,w
  5066  0239  300E               	movlw	14
  5067  023A  1903               	btfsc	3,2
  5068  023B  0218               	subwf	_kcomm_timer,w
  5069  023C  1C03               	btfss	3,0
  5070  023D  2A4F               	goto	i1l1347
  5071  023E  3008               	movlw	8
  5072                           
  5073                           ;main.c: 1257: {
  5074                           ;main.c: 1259: kcomm_timer = 0;
  5075  023F  0198               	clrf	_kcomm_timer
  5076  0240  0199               	clrf	_kcomm_timer+1
  5077                           
  5078                           ;main.c: 1260: kcomm_bit_idx ++;
  5079  0241  0AA7               	incf	_kcomm_bit_idx,f
  5080                           
  5081                           ;main.c: 1261: if(kcomm_bit_idx >= 8)
  5082  0242  0227               	subwf	_kcomm_bit_idx,w
  5083  0243  1C03               	btfss	3,0
  5084  0244  2A4B               	goto	i1l1348
  5085                           
  5086                           ;main.c: 1262: {
  5087                           ;main.c: 1263: PORTB6 = 0;
  5088  0245  1306               	bcf	6,6	;volatile
  5089                           
  5090                           ;main.c: 1264: kcomm_state = 4;
  5091  0246  3004               	movlw	4
  5092  0247  00A8               	movwf	_kcomm_state
  5093                           
  5094                           ;main.c: 1266: kcomm_cycle= 0;
  5095  0248  1683               	bsf	3,5	;RP0=1, select bank1
  5096  0249  01B7               	clrf	_kcomm_cycle^(0+128)
  5097                           
  5098                           ;main.c: 1267: }
  5099  024A  0008               	return
  5100  024B                     i1l1348:	
  5101                           
  5102                           ;main.c: 1268: else
  5103                           ;main.c: 1269: {
  5104                           ;main.c: 1270: kcomm_tx_shift <<= 1;
  5105  024B  1683               	bsf	3,5	;RP0=1, select bank1
  5106  024C  1003               	bcf	3,0
  5107  024D  0DBA               	rlf	_kcomm_tx_shift^(0+128),f
  5108  024E  0008               	return
  5109  024F                     i1l1347:	
  5110                           
  5111                           ;main.c: 1273: else
  5112                           ;main.c: 1274: {
  5113                           ;main.c: 1275: if(kcomm_tx_shift & 0x80)
  5114  024F  1683               	bsf	3,5	;RP0=1, select bank1
  5115  0250  1FBA               	btfss	_kcomm_tx_shift^(0+128),7
  5116  0251  2A5C               	goto	i1l4670
  5117                           
  5118                           ;main.c: 1276: {
  5119                           ;main.c: 1277: if(kcomm_timer <= 10)
  5120  0252  3000               	movlw	0
  5121  0253  1283               	bcf	3,5	;RP0=0, select bank0
  5122  0254  0219               	subwf	_kcomm_timer+1,w
  5123  0255  300B               	movlw	11
  5124  0256                     L9:	
  5125  0256  1903               	btfsc	3,2
  5126  0257  0218               	subwf	_kcomm_timer,w
  5127  0258  1C03               	btfss	3,0
  5128  0259  2A23               	goto	i1l1341
  5129                           
  5130                           ;main.c: 1281: else
  5131                           ;main.c: 1282: {
  5132                           ;main.c: 1283: PORTB6 = 0;
  5133  025A  1306               	bcf	6,6	;volatile
  5134  025B  0008               	return
  5135  025C                     i1l4670:	
  5136                           
  5137                           ;main.c: 1286: else
  5138                           ;main.c: 1287: {
  5139                           ;main.c: 1288: if(kcomm_timer <= 4)
  5140  025C  3000               	movlw	0
  5141  025D  1283               	bcf	3,5	;RP0=0, select bank0
  5142  025E  0219               	subwf	_kcomm_timer+1,w
  5143  025F  3005               	movlw	5
  5144  0260  2A56               	goto	L9
  5145  0261                     i1l4674:	
  5146                           
  5147                           ;main.c: 1300: if(kcomm_timer >= 20)
  5148  0261  3000               	movlw	0
  5149  0262  0219               	subwf	_kcomm_timer+1,w
  5150  0263  3014               	movlw	20
  5151  0264  1903               	btfsc	3,2
  5152  0265  0218               	subwf	_kcomm_timer,w
  5153  0266  1C03               	btfss	3,0
  5154  0267  0008               	return
  5155                           
  5156                           ;main.c: 1301: {
  5157                           ;main.c: 1302: PORTB6 = 0;
  5158  0268  1306               	bcf	6,6	;volatile
  5159                           
  5160                           ;main.c: 1303: do { TRISB6 = 1; } while(0);
  5161  0269  1746               	bsf	70,6	;volatile
  5162                           
  5163                           ;main.c: 1304: kcomm_tx_done = 1;
  5164  026A  1683               	bsf	3,5	;RP0=1, select bank1
  5165  026B  01B5               	clrf	_kcomm_tx_done^(0+128)
  5166  026C  0AB5               	incf	_kcomm_tx_done^(0+128),f
  5167                           
  5168                           ;main.c: 1305: kcomm_turn = 1;
  5169  026D  01B8               	clrf	_kcomm_turn^(0+128)
  5170  026E  0AB8               	incf	_kcomm_turn^(0+128),f
  5171  026F                     i1l4678:	
  5172                           
  5173                           ;main.c: 1306: kcomm_timer = 0;
  5174  026F  1283               	bcf	3,5	;RP0=0, select bank0
  5175  0270  0198               	clrf	_kcomm_timer
  5176  0271  0199               	clrf	_kcomm_timer+1
  5177                           
  5178                           ;main.c: 1307: kcomm_state = 0;
  5179  0272  01A8               	clrf	_kcomm_state
  5180  0273  0008               	return
  5181  0274                     i1l4680:	
  5182                           
  5183                           ;main.c: 1312: if(kcomm_timer >= 40)
  5184  0274  3000               	movlw	0
  5185  0275  0219               	subwf	_kcomm_timer+1,w
  5186  0276  3028               	movlw	40
  5187  0277  1903               	btfsc	3,2
  5188  0278  0218               	subwf	_kcomm_timer,w
  5189  0279  1C03               	btfss	3,0
  5190  027A  2A23               	goto	i1l1341
  5191                           
  5192                           ;main.c: 1313: {
  5193                           ;main.c: 1314: kcomm_timer = 0;
  5194  027B  0198               	clrf	_kcomm_timer
  5195  027C  0199               	clrf	_kcomm_timer+1
  5196                           
  5197                           ;main.c: 1315: PORTB6 = 0;
  5198  027D  1306               	bcf	6,6	;volatile
  5199                           
  5200                           ;main.c: 1316: kcomm_state = 6;
  5201  027E  3006               	movlw	6
  5202  027F  00A8               	movwf	_kcomm_state
  5203                           
  5204                           ;main.c: 1317: }
  5205  0280  0008               	return
  5206  0281                     i1l4688:	
  5207                           
  5208                           ;main.c: 1325: if(kcomm_timer >= 10)
  5209  0281  3000               	movlw	0
  5210  0282  0219               	subwf	_kcomm_timer+1,w
  5211  0283  300A               	movlw	10
  5212  0284  1903               	btfsc	3,2
  5213  0285  0218               	subwf	_kcomm_timer,w
  5214  0286  1C03               	btfss	3,0
  5215  0287  0008               	return
  5216                           
  5217                           ;main.c: 1326: {
  5218                           ;main.c: 1327: kcomm_timer = 0;
  5219  0288  0198               	clrf	_kcomm_timer
  5220  0289  0199               	clrf	_kcomm_timer+1
  5221                           
  5222                           ;main.c: 1328: bit_wait_fall = 0;
  5223  028A  1683               	bsf	3,5	;RP0=1, select bank1
  5224  028B  01A4               	clrf	Kcomm_ISR@bit_wait_fall^(0+128)
  5225                           
  5226                           ;main.c: 1329: kcomm_bit_idx = 0;
  5227  028C  1283               	bcf	3,5	;RP0=0, select bank0
  5228  028D  01A7               	clrf	_kcomm_bit_idx
  5229                           
  5230                           ;main.c: 1330: kcomm_rx_shift = 0;
  5231  028E  1683               	bsf	3,5	;RP0=1, select bank1
  5232  028F  01B6               	clrf	_kcomm_rx_shift^(0+128)
  5233  0290  1283               	bcf	3,5	;RP0=0, select bank0
  5234  0291  1746               	bsf	70,6	;volatile
  5235                           
  5236                           ;main.c: 1332: PORTB6 = 0;
  5237  0292  1306               	bcf	6,6	;volatile
  5238                           
  5239                           ;main.c: 1333: kcomm_state = 9;
  5240  0293  3009               	movlw	9
  5241  0294  00A8               	movwf	_kcomm_state
  5242  0295  0008               	return
  5243  0296                     i1l4698:	
  5244                           
  5245                           ;main.c: 1338: if(kcomm_timer >= ((kcomm_bit_idx == 0 && bit_wait_fall == 0) ? 400u : 60
      +                          u))
  5246  0296  0827               	movf	_kcomm_bit_idx,w
  5247  0297  1D03               	btfss	3,2
  5248  0298  2A9D               	goto	i1l4702
  5249  0299  1683               	bsf	3,5	;RP0=1, select bank1
  5250  029A  0824               	movf	Kcomm_ISR@bit_wait_fall^(0+128),w
  5251  029B  1903               	btfsc	3,2
  5252  029C  2AA2               	goto	i1l4704
  5253  029D                     i1l4702:	
  5254  029D  303C               	movlw	60
  5255  029E  1283               	bcf	3,5	;RP0=0, select bank0
  5256  029F  00AC               	movwf	_Kcomm_ISR$624
  5257  02A0  01AD               	clrf	_Kcomm_ISR$624+1
  5258  02A1  2AA7               	goto	i1l1373
  5259  02A2                     i1l4704:	
  5260  02A2  3090               	movlw	144
  5261  02A3  1283               	bcf	3,5	;RP0=0, select bank0
  5262  02A4  00AC               	movwf	_Kcomm_ISR$624
  5263  02A5  3001               	movlw	1
  5264  02A6  00AD               	movwf	_Kcomm_ISR$624+1
  5265  02A7                     i1l1373:	
  5266  02A7  082D               	movf	_Kcomm_ISR$624+1,w
  5267  02A8  0219               	subwf	_kcomm_timer+1,w
  5268  02A9  1D03               	btfss	3,2
  5269  02AA  2AAD               	goto	u402_25
  5270  02AB  082C               	movf	_Kcomm_ISR$624,w
  5271  02AC  0218               	subwf	_kcomm_timer,w
  5272  02AD                     u402_25:	
  5273  02AD  1C03               	btfss	3,0
  5274  02AE  2AB4               	goto	i1l4714
  5275                           
  5276                           ;main.c: 1339: {
  5277                           ;main.c: 1340: kcomm_rx_done = 0xFF;
  5278  02AF  30FF               	movlw	255
  5279  02B0  00A6               	movwf	_kcomm_rx_done
  5280                           
  5281                           ;main.c: 1341: kcomm_turn = 0;
  5282                           ;main.c: 1342: kcomm_timer = 0;
  5283  02B1  2300               	fcall	PL18	;call to abstracted procedure
  5284  02B2                     i1l4712:	
  5285                           
  5286                           ;main.c: 1343: kcomm_state = 0;
  5287  02B2  01A8               	clrf	_kcomm_state
  5288                           
  5289                           ;main.c: 1344: break;
  5290  02B3  0008               	return
  5291  02B4                     i1l4714:	
  5292                           
  5293                           ;main.c: 1345: }
  5294                           ;main.c: 1346: if(bit_wait_fall == 0)
  5295  02B4  1683               	bsf	3,5	;RP0=1, select bank1
  5296  02B5  0824               	movf	Kcomm_ISR@bit_wait_fall^(0+128),w
  5297                           
  5298                           ;main.c: 1347: {
  5299                           ;main.c: 1349: if(((PORTB & 0x40) ? 1 : 0))
  5300  02B6  1283               	bcf	3,5	;RP0=0, select bank0
  5301  02B7  1D03               	btfss	3,2
  5302  02B8  2AC1               	goto	L10
  5303  02B9  1F06               	btfss	6,6	;volatile
  5304  02BA  0008               	return
  5305                           
  5306                           ;main.c: 1350: {
  5307                           ;main.c: 1351: kcomm_timer = 0;
  5308  02BB  0198               	clrf	_kcomm_timer
  5309  02BC  0199               	clrf	_kcomm_timer+1
  5310                           
  5311                           ;main.c: 1352: bit_wait_fall = 1;
  5312  02BD  1683               	bsf	3,5	;RP0=1, select bank1
  5313  02BE  01A4               	clrf	Kcomm_ISR@bit_wait_fall^(0+128)
  5314  02BF  0AA4               	incf	Kcomm_ISR@bit_wait_fall^(0+128),f
  5315  02C0  0008               	return
  5316  02C1                     L10:	
  5317                           
  5318                           ;main.c: 1355: else
  5319                           ;main.c: 1356: {
  5320                           ;main.c: 1358: if(!((PORTB & 0x40) ? 1 : 0))
  5321  02C1  1B06               	btfsc	6,6	;volatile
  5322  02C2  0008               	return
  5323  02C3  3000               	movlw	0
  5324                           
  5325                           ;main.c: 1359: {
  5326                           ;main.c: 1360: kcomm_rx_shift <<= 1;
  5327  02C4  1683               	bsf	3,5	;RP0=1, select bank1
  5328  02C5  1003               	bcf	3,0
  5329  02C6  0DB6               	rlf	_kcomm_rx_shift^(0+128),f
  5330                           
  5331                           ;main.c: 1361: if(kcomm_timer >= 7)
  5332  02C7  1283               	bcf	3,5	;RP0=0, select bank0
  5333  02C8  0219               	subwf	_kcomm_timer+1,w
  5334  02C9  3007               	movlw	7
  5335  02CA  1903               	btfsc	3,2
  5336  02CB  0218               	subwf	_kcomm_timer,w
  5337                           
  5338                           ;main.c: 1362: kcomm_rx_shift |= 1;
  5339  02CC  1683               	bsf	3,5	;RP0=1, select bank1
  5340  02CD  1803               	btfsc	3,0
  5341  02CE  1436               	bsf	_kcomm_rx_shift^(0+128),0
  5342  02CF  3008               	movlw	8
  5343                           
  5344                           ;main.c: 1364: bit_wait_fall = 0;
  5345  02D0  1683               	bsf	3,5	;RP0=1, select bank1
  5346  02D1  01A4               	clrf	Kcomm_ISR@bit_wait_fall^(0+128)
  5347                           
  5348                           ;main.c: 1365: kcomm_bit_idx++;
  5349  02D2  1283               	bcf	3,5	;RP0=0, select bank0
  5350  02D3  0AA7               	incf	_kcomm_bit_idx,f
  5351                           
  5352                           ;main.c: 1367: if(kcomm_bit_idx >= 8)
  5353  02D4  0227               	subwf	_kcomm_bit_idx,w
  5354  02D5  1C03               	btfss	3,0
  5355  02D6  0008               	return
  5356                           
  5357                           ;main.c: 1368: {
  5358                           ;main.c: 1369: kcomm_rx_buf = kcomm_rx_shift;
  5359  02D7  1683               	bsf	3,5	;RP0=1, select bank1
  5360  02D8  0836               	movf	_kcomm_rx_shift^(0+128),w
  5361  02D9  00B9               	movwf	_kcomm_rx_buf^(0+128)
  5362  02DA  300A               	movlw	10
  5363                           
  5364                           ;main.c: 1370: kcomm_rx_done = 1;
  5365  02DB  1283               	bcf	3,5	;RP0=0, select bank0
  5366  02DC  01A6               	clrf	_kcomm_rx_done
  5367  02DD  0AA6               	incf	_kcomm_rx_done,f
  5368                           
  5369                           ;main.c: 1371: kcomm_turn = 0;
  5370  02DE  2300               	fcall	PL18	;call to abstracted procedure
  5371                           
  5372                           ;main.c: 1373: kcomm_state = 10;
  5373  02DF  00A8               	movwf	_kcomm_state
  5374  02E0  0008               	return
  5375  02E1                     i1l4742:	
  5376                           
  5377                           ;main.c: 1379: if(kcomm_timer >= 10)
  5378  02E1  3000               	movlw	0
  5379  02E2  0219               	subwf	_kcomm_timer+1,w
  5380  02E3  300A               	movlw	10
  5381  02E4  1903               	btfsc	3,2
  5382  02E5  0218               	subwf	_kcomm_timer,w
  5383  02E6  1C03               	btfss	3,0
  5384  02E7  0008               	return
  5385  02E8  2A6F               	goto	i1l4678
  5386  02E9                     i1l4750:	
  5387  02E9  0828               	movf	_kcomm_state,w
  5388                           
  5389                           ; Switch size 1, requested type "space"
  5390                           ; Number of cases is 8, Range of values is 1 to 10
  5391                           ; switch strategies available:
  5392                           ; Name         Instructions Cycles
  5393                           ; direct_byte           19     9 (fixed)
  5394                           ; simple_byte           25    13 (average)
  5395                           ; jumptable            263     9 (fixed)
  5396                           ;	Chosen strategy is direct_byte
  5397  02EA  3EFF               	addlw	-1
  5398  02EB  1C03               	btfss	3,0
  5399  02EC  2AB2               	goto	i1l4712
  5400  02ED  0084               	movwf	4
  5401  02EE  300A               	movlw	10
  5402  02EF  0204               	subwf	4,w
  5403  02F0  1803               	btfsc	3,0
  5404  02F1  2AB2               	goto	i1l4712
  5405  02F2  3007               	movlw	high i1S5798
  5406  02F3  008A               	movwf	10
  5407  02F4  30F0               	movlw	low i1S5798
  5408  02F5  0704               	addwf	4,w
  5409  02F6  0082               	movwf	2
  5410  02F7  0008               	return
  5411  02F8                     __end_of_Kcomm_ISR:	
  5412  02F8                     PL10:	
  5413  02F8  01A5               	clrf	_kcomm_wakeup
  5414  02F9  1683               	bsf	3,5	;RP0=1, select bank1
  5415  02FA  019E               	clrf	_kcomm_wakeup_cnt^(0+128)
  5416  02FB  019F               	clrf	(_kcomm_wakeup_cnt+1)^(0+128)
  5417  02FC  01A0               	clrf	_kcomm_low_cnt^(0+128)
  5418  02FD  01A1               	clrf	(_kcomm_low_cnt+1)^(0+128)
  5419  02FE  1283               	bcf	3,5	;RP0=0, select bank0
  5420  02FF  0008               	return
  5421  0300                     __end_ofPL10:	
  5422  0300                     PL18:	
  5423  0300  1683               	bsf	3,5	;RP0=1, select bank1
  5424  0301  01B8               	clrf	_kcomm_turn^(0+128)
  5425  0302  1283               	bcf	3,5	;RP0=0, select bank0
  5426  0303  0198               	clrf	_kcomm_timer
  5427  0304  0199               	clrf	_kcomm_timer+1
  5428  0305  0008               	return
  5429  0306                     __end_ofPL18:	
  5430                           
  5431                           	psect	swtext1
  5432  07F0                     __pswtext1:	
  5433  07F0                     i1S5798:	
  5434  07F0  2A16               	ljmp	i1l4634
  5435  07F1  2A25               	ljmp	i1l4642
  5436  07F2  2A37               	ljmp	i1l4652
  5437  07F3  2A61               	ljmp	i1l4674
  5438  07F4  2A74               	ljmp	i1l4680
  5439  07F5  2A81               	ljmp	i1l4688
  5440  07F6  2AB2               	ljmp	i1l4712
  5441  07F7  2AB2               	ljmp	i1l4712
  5442  07F8  2A96               	ljmp	i1l4698
  5443  07F9  2AE1               	ljmp	i1l4742
  5444                           
  5445                           	psect	text25
  5446  0777                     __ptext25:	
  5447  0777                     _comm_pack_tx:	
  5448 ;; *************** function _comm_pack_tx *****************
  5449 ;; Defined at:
  5450 ;;		line 1080 in file "main.c"
  5451 ;; Parameters:    Size  Location     Type
  5452 ;;		None
  5453 ;; Auto vars:     Size  Location     Type
  5454 ;;  lo              1    2[BANK0 ] unsigned char 
  5455 ;;  result          1    1[BANK0 ] unsigned char 
  5456 ;;  hi              1    0[BANK0 ] unsigned char 
  5457 ;; Return value:  Size  Location     Type
  5458 ;;                  1    wreg      unsigned char 
  5459 ;; Registers used:
  5460 ;;		wreg, status,2, status,0
  5461 ;; Tracked objects:
  5462 ;;		On entry : 100/100
  5463 ;;		On exit  : 100/0
  5464 ;;		Unchanged: 0/0
  5465 ;; Data sizes:     COMMON   BANK0   BANK1
  5466 ;;      Params:         0       0       0
  5467 ;;      Locals:         0       3       0
  5468 ;;      Temps:          0       0       0
  5469 ;;      Totals:         0       3       0
  5470 ;;Total ram usage:        3 bytes
  5471 ;; Hardware stack levels used:    1
  5472 ;; This function calls:
  5473 ;;		Nothing
  5474 ;; This function is called by:
  5475 ;;		_Kcomm_ISR
  5476 ;; This function uses a non-reentrant model
  5477 ;;
  5478                           ;psect for function _comm_pack_tx
  5479                           
  5480                           
  5481                           ;main.c: 1082: unsigned char lo = 0;
  5482                           ;incstack = 0
  5483                           ; Regs used in _comm_pack_tx: [wreg+status,2+status,0]
  5484  0777  1283               	bcf	3,5	;RP0=0, select bank0
  5485  0778  01AB               	clrf	comm_pack_tx@lo
  5486                           
  5487                           ;main.c: 1083: unsigned char hi;
  5488                           ;main.c: 1084: unsigned char result;
  5489                           ;main.c: 1087: if(!PORTA3)
  5490  0779  1D85               	btfss	5,3	;volatile
  5491                           
  5492                           ;main.c: 1088: {
  5493                           ;main.c: 1089: lo |= 0x01;
  5494  077A  142B               	bsf	comm_pack_tx@lo,0
  5495                           
  5496                           ;main.c: 1090: }
  5497                           ;main.c: 1092: if(B_OnOff_Flag)
  5498  077B  1F35               	btfss	_B_OnOff_Flag/(0+8),_B_OnOff_Flag& (0+7)
  5499  077C  2F81               	goto	i1l3862
  5500                           
  5501                           ;main.c: 1093: {
  5502                           ;main.c: 1094: lo |= 0x04;
  5503  077D  152B               	bsf	comm_pack_tx@lo,2
  5504                           
  5505                           ;main.c: 1097: if(B_LowPower_Flag)
  5506  077E  1EB5               	btfss	_B_LowPower_Flag/(0+8),_B_LowPower_Flag& (0+7)
  5507  077F  2F81               	goto	i1l3862
  5508                           
  5509                           ;main.c: 1098: lo |= 0x02;
  5510  0780  14AB               	bsf	comm_pack_tx@lo,1
  5511  0781                     i1l3862:	
  5512                           
  5513                           ;main.c: 1099: }
  5514                           ;main.c: 1102: lo = lo & 0x0F;
  5515  0781  300F               	movlw	15
  5516  0782  05AB               	andwf	comm_pack_tx@lo,f
  5517                           
  5518                           ;main.c: 1103: hi = lo ^ 0x0F;
  5519  0783  082B               	movf	comm_pack_tx@lo,w
  5520  0784  3A0F               	xorlw	15
  5521  0785  00A9               	movwf	comm_pack_tx@hi
  5522                           
  5523                           ;main.c: 1104: result = (hi << 4) | lo;
  5524  0786  0E29               	swapf	comm_pack_tx@hi,w
  5525  0787  39F0               	andlw	240
  5526  0788  042B               	iorwf	comm_pack_tx@lo,w
  5527  0789  00AA               	movwf	comm_pack_tx@result
  5528                           
  5529                           ;main.c: 1105: return result;
  5530  078A  0008               	return
  5531  078B                     __end_of_comm_pack_tx:	
  5532  003E                     btemp	set	62	;btemp
  5533  003E                     wtemp0	set	62
  5534                           
  5535                           	psect	pa_nodes0
  5536  0000                     SFR:	
  5537  0000                     Addresses:	
  5538                           ; Version 1.45
  5539                           ; Generated 16/11/2017 GMT
  5540                           ; 
  5541                           ; Copyright © 2017, Microchip Technology Inc. and its subsidiaries ("Microchip")
  5542                           ; All rights reserved.
  5543                           ; 
  5544                           ; This software is developed by Microchip Technology Inc. and its subsidiaries ("Microch
      +                          ip").
  5545                           ; 
  5546                           ; Redistribution and use in source and binary forms, with or without modification, are
  5547                           ; permitted provided that the following conditions are met:
  5548                           ; 
  5549                           ;     1. Redistributions of source code must retain the above copyright notice, this lis
      +                          t of
  5550                           ;        conditions and the following disclaimer.
  5551                           ; 
  5552                           ;     2. Redistributions in binary form must reproduce the above copyright notice, this 
      +                          list
  5553                           ;        of conditions and the following disclaimer in the documentation and/or other
  5554                           ;        materials provided with the distribution.
  5555                           ; 
  5556                           ;     3. Microchip's name may not be used to endorse or promote products derived from th
      +                          is
  5557                           ;        software without specific prior written permission.
  5558                           ; 
  5559                           ; THIS SOFTWARE IS PROVIDED BY MICROCHIP "AS IS" AND ANY EXPRESS OR IMPLIED WARRANTIES,
  5560                           ; INCLUDING, BUT NOT LIMITED TO, THE IMPLIED WARRANTIES OF MERCHANTABILITY AND FITNESS F
      +                          OR
  5561                           ; PURPOSE ARE DISCLAIMED.  IN NO EVENT SHALL MICROCHIP BE LIABLE FOR ANY DIRECT, INDIREC
      +                          T,
  5562                           ; INCIDENTAL, SPECIAL, EXEMPLARY, OR CONSequENTIAL DAMAGES (INCLUDING BUT NOT LIMITED TO
  5563                           ; PROCUREMENT OF SUBSTITUTE GOODS OR SERVICES; LOSS OF USE, DATA OR PROFITS; OR BUSINESS
  5564                           ; INTERRUPTION) HOWSOEVER CAUSED AND ON ANY THEORY OF LIABILITY, WHETHER IN CONTRACT, ST
      +                          RICT
  5565                           ; LIABILITY, OR TORT (INCLUDING NEGLIGENCE OR OTHERWISE) ARISING IN ANY WAY OUT OF THE U
      +                          SE OF
  5566                           ; THIS SOFTWARE, EVEN IF ADVISED OF THE POSSIBILITY OF SUCH DAMAGE.
  5567                           ; 
  5568                           ; 
  5569                           ; Code-generator required, PIC16F887 Definitions
  5570                           ; 
  5571                           ; SFR Addresses
  5572                           


Data Sizes:
    Strings     0
    Constant    7
    Data        2
    BSS         69
    Persistent  0
    Stack       0

Auto Spaces:
    Space          Size  Autos    Used
    COMMON            0      0       0
    BANK0            46     12      38
    BANK1            80     12      58

Pointer List with Targets:

    None.

Critical Paths under _main in COMMON

    None.

Critical Paths under _Timer1_Isr in COMMON

    None.

Critical Paths under _main in BANK0

    _main->_Battery_Update
    _main->_Delay_Init
    _main->_fan_ramp_proc
    _Sleep_Func->_delay_us
    _ADC_Init->_delay_us
    _LedMode_Func->_show_gear_led
    _Key_Application->_Battery_Update
    _warn_flash_proc->_show_gear_led
    _Battery_Update->_adc_read_vdd
    _Comm_Process->_comm_parse_rx

Critical Paths under _Timer1_Isr in BANK0

    _Timer1_Isr->_Kcomm_ISR
    _Kcomm_ISR->_comm_pack_tx

Critical Paths under _main in BANK1

    _main->_sysinitial
    _Sleep_Func->_sysinitial
    _Battery_Update->_adc_read_vdd

Critical Paths under _Timer1_Isr in BANK1

    None.

Call Graph Tables:

 ---------------------------------------------------------------------------------
 (Depth) Function   	        Calls       Base Space   Used Autos Params    Refs
 ---------------------------------------------------------------------------------
 (0) _main                                                 0     0      0    2886
                           _ADC_Init
                     _Battery_Update
                       _Comm_Process
                         _Delay_Init
                      _Flag_AllClear
                    _Key_Application
                           _Key_Func
                       _LedMode_Func
                            _SW_Func
                         _Sleep_Func
                      _T1_PWM_inital
                      _fan_ramp_proc
                             _inital
                         _ramInitial
                            _set_fan
                         _sysinitial
 ---------------------------------------------------------------------------------
 (1) _ramInitial                                           0     0      0       0
 ---------------------------------------------------------------------------------
 (1) _fan_ramp_proc                                        4     4      0     134
                                              8 BANK0      4     4      0
 ---------------------------------------------------------------------------------
 (1) _T1_PWM_inital                                        0     0      0       0
 ---------------------------------------------------------------------------------
 (1) _Sleep_Func                                           1     1      0     548
                           _ADC_Init
                           _delay_us
                             _inital
                         _sysinitial
 ---------------------------------------------------------------------------------
 (1) _sysinitial                                          12    12      0     240
                                              0 BANK1     12    12      0
 ---------------------------------------------------------------------------------
 (1) _inital                                               0     0      0       0
 ---------------------------------------------------------------------------------
 (2) _ADC_Init                                             0     0      0     154
                           _delay_us
 ---------------------------------------------------------------------------------
 (2) _delay_us                                             4     2      2     154
                                              8 BANK0      4     2      2
 ---------------------------------------------------------------------------------
 (1) _SW_Func                                              0     0      0       0
 ---------------------------------------------------------------------------------
 (1) _LedMode_Func                                         0     0      0     155
                      _show_gear_led
 ---------------------------------------------------------------------------------
 (1) _Key_Func                                             0     0      0       0
 ---------------------------------------------------------------------------------
 (1) _Key_Application                                      3     3      0     876
                                              4 BANK1      3     3      0
                     _Battery_Update
                            _set_fan
                      _show_gear_led
                       _trigger_warn
                    _warn_flash_proc
 ---------------------------------------------------------------------------------
 (2) _warn_flash_proc                                      0     0      0     155
                      _show_gear_led
 ---------------------------------------------------------------------------------
 (2) _show_gear_led                                        1     1      0     155
                                              8 BANK0      1     1      0
 ---------------------------------------------------------------------------------
 (2) _trigger_warn                                         1     1      0      31
                                              8 BANK0      1     1      0
 ---------------------------------------------------------------------------------
 (1) _set_fan                                              1     1      0      96
                                              8 BANK0      1     1      0
 ---------------------------------------------------------------------------------
 (2) _Battery_Update                                       2     2      0     297
                                             10 BANK0      2     2      0
                       _adc_read_vdd
 ---------------------------------------------------------------------------------
 (3) _adc_read_vdd                                         6     4      2      77
                                              8 BANK0      2     0      2
                                              0 BANK1      4     4      0
 ---------------------------------------------------------------------------------
 (1) _Flag_AllClear                                        0     0      0       0
 ---------------------------------------------------------------------------------
 (1) _Delay_Init                                           4     2      2      89
                                              8 BANK0      4     2      2
 ---------------------------------------------------------------------------------
 (1) _Comm_Process                                         1     1      0     297
                                              0 BANK1      1     1      0
                      _comm_parse_rx
 ---------------------------------------------------------------------------------
 (2) _comm_parse_rx                                        4     4      0     263
                                              8 BANK0      4     4      0
 ---------------------------------------------------------------------------------
 Estimated maximum stack depth 3
 ---------------------------------------------------------------------------------
 (Depth) Function   	        Calls       Base Space   Used Autos Params    Refs
 ---------------------------------------------------------------------------------
 (4) _Timer1_Isr                                           3     3      0     119
                                              5 BANK0      3     3      0
                          _Kcomm_ISR
 ---------------------------------------------------------------------------------
 (5) _Kcomm_ISR                                            2     2      0     119
                                              3 BANK0      2     2      0
                       _comm_pack_tx
 ---------------------------------------------------------------------------------
 (6) _comm_pack_tx                                         3     3      0      95
                                              0 BANK0      3     3      0
 ---------------------------------------------------------------------------------
 Estimated maximum stack depth 6
 ---------------------------------------------------------------------------------

 Call Graph Graphs:

 _main (ROOT)
   _ADC_Init
     _delay_us
   _Battery_Update
     _adc_read_vdd
   _Comm_Process
     _comm_parse_rx
   _Delay_Init
   _Flag_AllClear
   _Key_Application
     _Battery_Update
       _adc_read_vdd
     _set_fan
     _show_gear_led
     _trigger_warn
     _warn_flash_proc
       _show_gear_led
   _Key_Func
   _LedMode_Func
     _show_gear_led
   _SW_Func
   _Sleep_Func
     _ADC_Init
       _delay_us
     _delay_us
     _inital
     _sysinitial
   _T1_PWM_inital
   _fan_ramp_proc
   _inital
   _ramInitial
   _set_fan
   _sysinitial

 _Timer1_Isr (ROOT)
   _Kcomm_ISR
     _comm_pack_tx

 Address spaces:
Name               Size   Autos  Total    Cost      Usage
BITCOMMON            0      0       0       0        0.0%
NULL                 0      0       0       0        0.0%
CODE                 0      0       0       0        0.0%
BITSFR0              0      0       0       1        0.0%
SFR0                 0      0       0       1        0.0%
COMMON               0      0       0       1        0.0%
BITSFR1              0      0       0       2        0.0%
SFR1                 0      0       0       2        0.0%
STACK                0      0       0       2        0.0%
BITBANK0            2E      0       1       3        2.2%
BANK0               2E      C      26       4       82.6%
BITBANK1            50      0       0       5        0.0%
BANK1               50      C      3A       6       72.5%
ABS                  0      0      60       7        0.0%
DATA                 0      0      60       8        0.0%


Microchip Technology PIC Macro Assembler V1.45 build -152302408 
Symbol Table                                                                                   Wed Jul 01 09:43:52 2026

        Kcomm_ISR@bit_wait_fall 00A4                   ?_comm_pack_tx 0029              __end_of_sysinitial 067B  
         __size_of_trigger_warn 000D                               L1 031F                               L2 0079  
                             L3 0089                               L4 0472                               L5 0401  
                             L6 040D                               L7 0409                               L8 0597  
                             L9 0256                              L10 02C1                              PL2 018C  
                            PL4 0520                              PL6 0192                              PL8 04A9  
                            SFR 0000              comm_pack_tx@result 002A                              _T0 0001  
                            _T1 004D                              _T2 0052          Battery_Update@loop_max 0092  
        Battery_Update@loop_min 0094          Battery_Update@loop_num 00AC          Battery_Update@loop_sum 0090  
                ?_comm_parse_rx 0029                             PL10 02F8                             PL12 019B  
                           PL14 04B1                             PL16 05AD                             PL18 0300  
                           _GIE 0077                             _BOR 025B                             _FSR 0004  
                           _PS0 0208                             _PS1 0209                             _PS2 020A  
                           _PIR 000F                             _SCS 0285                             _PSA 020B  
                           _POR 025C            Delay_Init@Delay_Duty 0031                            l1102 038A  
                          l1111 03C4                            l1031 0503                            l1120 03D7  
                          l1121 03DC                            l1018 0725                            l1043 05BE  
                          l1140 040C                            l1204 0694                            l1108 039A  
                          l1117 03BC                            l1070 0323                            l1208 06A2  
                          l1305 06EE                            l1090 036C                            l1307 06EC  
                          l1251 0045                            l1084 035D                            l1076 033F  
                          l1068 039C                            l1309 06F5                            l1405 0609  
                          l1262 009E                            l1159 047B                            l1248 008F  
                          l1096 037B                            l1268 00CC                            l5000 03F2  
                          l5030 0445                            l5024 043A                            l4216 0628  
                          l5042 0461                            l5034 044F                            l5026 043C  
                          l4226 0632                            l5052 0473                            l5132 06A3  
                          l4260 073F                            l5070 049F                            l5046 046A  
                          l5038 0458                            l5126 0696                            l4238 0640  
                          l4262 0741                            l5072 0491                            l5312 0342  
                          l4192 0549                            l5090 076A                            l5410 03D2  
                          l5330 0355                            l5306 0336                            l5250 050D  
                          l5156 06EF                            l5068 049C                            l5340 0362  
                          l5332 0357                            l5308 0339                            l5094 0770  
                          l5350 0371                            l5342 0364                            l5246 0508  
                          l4198 0561                            l3910 0795                            l3902 078D  
                          l3920 079E                            l5432 0026                            l5360 0380  
                          l5352 0373                            l5328 0351                            l5176 04C3  
                          l5370 0394                            l5362 0382                            l5338 035E  
                          l5290 031E                            l3578 0723                            l5178 04C6  
                          l5460 0088                            l5436 002D                            l5372 0396  
                          l5348 036D                            l5276 0309                            l3588 0718  
                          l5710 0187                            l5606 00C3                            l5518 0078  
                          l5374 0390                            l5358 037C                            l5278 030B  
                          l5704 0180                            l5464 008B                            l5392 03B3  
                          l5368 038B                            l5288 031C                            l5730 070F  
                          l5642 0107                            l5546 0083                            l5394 03B6  
                          l5732 0714                            l5716 06FB                            l4924 05CD  
                          l5708 0184                            l5652 0117                            l5636 00FE  
                          l5628 00F3                            l5468 0039                            l5726 070A  
                          l5662 0129                            l5582 00B1                            l5486 0059  
                          l5478 004E                            l5398 03BF                            l5742 05F5  
                          l5576 00A9                            l5760 0610                            _ADIF 007A  
                          _ADEN 02D0                            l5666 012F                            l5498 0067  
                          l5684 0160                            l5692 016B                            l5668 0132  
                          l5764 0612                            l5598 00BA                            l5758 060E  
                          _ADON 02D1                            _CHS0 02D2                            _CHS1 02D3  
                          _CHS2 02D4                            _CHS3 02D5                            _T0CK 025F  
                          _T0IE 0070                            _T0IF 0073                            _T0CS 020D  
                          _T1IE 0259                            _T1IF 0258                            _T1EN 0267  
                          _T2IE 025E                            _T2IF 025D                            _T2EN 0287  
                          _PDA0 0210                            _PDA1 0211                            _PDA2 0212  
                          _PDA3 0213                            _PDA4 0214                            _PDA5 0215  
                          _PDA6 0216                            _PDA7 0217                            _T0SE 020C  
                          _IOCA 0007                            _IOCB 0009                            _INDF 0000  
                          _PHA0 0218                            _PHA1 0219                            _PHA2 021A  
                          _PHA3 021B                            _PHA4 021C                            _PHA5 021D  
                          _PHA6 021E                            _PHA7 021F                            u3155 053D  
                          _PAIE 0079                            _PAIF 0078                            u2615 07A4  
                          u3175 054F                            _PBIE 0071                            _PBIF 0074  
                          u3185 055B                            u3195 0566                            u4355 03FB  
                          _VHS0 02D9                            _VHS1 02DA                            _VHS2 02DB  
                          _PWMM 02A8                 ?_Battery_Update 0029           __size_of_adc_read_vdd 0035  
                          _main 05E8                    _trigger_warn 07E3                            btemp 003E  
                    _Delay_Init 079C                __end_of_ADC_Init 07E3                            start 0017  
         __end_of_Flag_AllClear 06D4                 __end_of_SW_Func 074C                    _g_k1_hold_ms 0016  
                ??_comm_pack_tx 0000                    _g_k2_hold_ms 0014     Key_Application@off_key_prev 00A5  
              ?_Key_Application 0029                 ??_show_gear_led 0000                           _ADCS0 02DC  
                         _ADCS1 02DD                           _ADCS2 02DE                           ?_main 0029  
                         _ADREF 02D8                           _T1CK0 0263                           _T1CK1 0264  
                         _T2CK0 0283                           _T2CK1 0284                           _BOREN 025A  
                         _T1CON 004C                           _T2CON 0050                           _T1PR0 0260  
                         _T1PR1 0261                           _T1PR2 0262                           _T2PR0 0280  
                         _T2PR1 0281                           _T2PR2 0282                           _PDCON 000B  
                         _PHCON 000D                           _PMCON 0040                           _PWM0E 0266  
                         _PWM1E 0286                           _TMR2H 0051                           _PWM0P 004F  
                         _PWM1P 0054                           _PORTA 0005                           _PORTB 0006  
                         _WDTEN 020F                           _PWMS0 028E                           _PWMS1 028F  
                         _TRISA 0045                           _TRISB 0046            __end_of_LedMode_Func 03E0  
                  _adc_read_vdd 05B3                           _level 001D                 __end_of_set_fan 0777  
                         wtemp0 003E            __end_of_Comm_Process 0718                 __initialization 0018  
                  __end_of_main 061A                __end_of_Key_Func 064B                   _kcomm_bit_idx 0027  
               ??_comm_parse_rx 0000          __size_of_T1_PWM_inital 000F                          ??_main 0000  
                 _kcomm_low_cnt 00A0                   _kcomm_rx_done 0026                   _kcomm_tx_done 00B5  
         __end_of_fan_ramp_proc 0572                          _ADCON0 005A                          _ADCON1 005B  
                        _ADRESH 0059                          _ADRESL 0058                          i1S5798 07F0  
                        _ANSEL0 02B0                          _ANSEL1 02B1                          _ANSEL2 02B2  
                        _ANSEL3 02B3                          _ANSEL4 02B4                          _ANSEL5 02B5  
                        _ANSEL6 02B6                          _ANSEL7 02B7                          _ANSEL8 02B8  
                        _ANSEL9 02B9                          _ANSELH 0057                          _ANSELL 0056  
            __size_of_Kcomm_ISR 0157                          _T1LOAD 004E                          _T2LOAD 0053  
                        i1l1330 01EA                          i1l1341 0223                          i1l1347 024F  
                        i1l1348 024B                          i1l1373 02A7                          _PDCON1 0042  
                        i1l4602 01F0                          i1l4604 01F3                          i1l4702 029D  
                        i1l4712 02B2                          i1l4704 02A2                          i1l4624 020B  
                        i1l4714 02B4                          i1l4642 0225                          i1l4634 0216  
                        i1l4652 0237                          i1l3862 0781                          i1l4742 02E1  
                        i1l4670 025C                          i1l4750 02E9                          i1l4680 0274  
                        i1l4568 01B2                          i1l4674 0261                          i1l4578 01C3  
                        i1l4588 01D6                          i1l4678 026F                          i1l4688 0281  
                        i1l4698 0296                          i1l4866 0580                          _INTEDG 020E  
                        i1l4884 0598                          _PHCON1 0043                          u402_25 02AD  
                        _PMADRH 0048                          _PMADRL 0047                          _PMDATH 004A  
                        _PMDATL 0049              _g_slave_chargefull 01AB                       ??_SW_Func 0000  
                        _PORTA1 0029                          _PORTB0 0030                          _PORTA2 002A  
                        _PORTB1 0031                          _PORTA3 002B                          _PORTB2 0032  
                        _PORTA4 002C                          _PORTA6 002E                          _PORTA7 002F  
                        _PORTB6 0036                          _OPTION 0041                          _PWM1_8 0288  
                        _PWM1_9 0289                          _TRISA0 0228                          _TRISA1 0229  
                        _TRISB0 0230                          _TRISA2 022A                          _TRISB1 0231  
                        _TRISA3 022B                          _TRISB2 0232                          _TRISA4 022C  
                        _TRISB3 0233                          _TRISA5 022D                          _TRISB4 0234  
                        _TRISA6 022E                          _TRISB5 0235                          _TRISA7 022F  
                        _TRISB6 0236                          _TRISB7 0237                          _PWMSET 0055  
                   ?_Delay_Init 0031               Timer1_Isr@pwm_cnt 00A2                __end_of_delay_us 0732  
                    _Sleep_Func 04B7                      _Timer1_Isr 0572                          _g_gear 0022  
                        _inital 07BB                       ?_ADC_Init 0029                          saved_w 003E  
                     ??_set_fan 0000            __end_of_comm_pack_tx 078B        __size_of_warn_flash_proc 002D  
                 _T1_PWM_inital 07AC             _Key_Application$609 00C0         __end_of__initialization 0018  
       LedMode_Func@chg_pwm_cnt 001C                  __pcstackCOMMON 0000                    __pidataBANK1 07FA  
              _kcomm_wakeup_cnt 009E                      _adcon1_val 0024                      _c_fan_duty 07CF  
             __end_of_Kcomm_ISR 02F8                 _g_overclock_pwm 00B1           __size_of_LedMode_Func 00DA  
                    __end_ofPL2 0192                      __end_ofPL4 0529                      __end_ofPL6 019B  
                    __end_ofPL8 04B1             __size_of_Delay_Init 0010                      ??_ADC_Init 0000  
              _g_slave_charging 01AC                ??_Battery_Update 0000                _g_slave_alive_ms 0098  
                ?_T1_PWM_inital 0029                      __pbssBANK0 0010                      __pbssBANK1 0090  
                comm_pack_tx@hi 0029                  comm_pack_tx@lo 002B                       ?_Key_Func 0029  
       LedMode_Func@breath_duty 001B           __size_of_Comm_Process 0021                       SAVE_BANK1 000C  
                _kcomm_rx_shift 00B6            Sleep_Func@Sleep_Time 0096                     ?_Sleep_Func 0029  
                  _LedMode_Func 0306                  _kcomm_tx_shift 00BA                     ?_Timer1_Isr 0029  
                    __pmaintext 05E8                      __pintentry 0008                         ?_inital 0029  
                  _g_offshow_ms 009A                         _ANSEL10 02BA                         _ANSEL11 02BB  
                       _ANSEL14 02BE                         _ANSEL15 02BF                      _g_warn_cnt 00B2  
                    _g_warn_led 001F                         _T0OSCEN 0265                         _INTECON 000E  
                  _Comm_Process 06F7                       ?_delay_us 0031                         _RD_FLAG 0200  
                    __stringtab 07C9                      ??_Key_Func 0000              Timer1_Isr@timer_ms 00A3  
                  _g_target_pwm 00B4                         _SW_Func 0732               ??_warn_flash_proc 0000  
                    _kcomm_turn 00B8                  _g_offshow_flag 01A8                      _ramInitial 078B  
                  _g_warn_blink 01A9                     set_fan@gear 0031                    _g_warn_flash 0020  
              comm_parse_rx@raw 0033      Battery_Update@low_debounce 00AE                 __size_of_inital 000E  
                       __ptext1 078B                         __ptext2 0529                         __ptext3 07AC  
                       __ptext4 04B7                         __ptext5 064B                         __ptext6 07BB  
                       __ptext7 07D6                         __ptext8 0718                         __ptext9 0732  
         __size_of_comm_pack_tx 0014           __end_of_show_gear_led 0763                       _T1CR_AUXR 004B  
               ??_T1_PWM_inital 0000          __size_of_Flag_AllClear 002C                      ??_delay_us 0000  
                       _set_fan 0763        __size_of_Key_Application 0172             __size_of_Sleep_Func 0069  
                     _DIY_Flag1 0023             __size_of_Timer1_Isr 003B            end_of_initialization 0018  
                    delay_us@us 0031                    ??_Delay_Init 0000                    _comm_pack_tx 0777  
         __end_of_comm_parse_rx 06F7         LedMode_Func@lv_debounce 00AF              __end_of_Delay_Init 07AC  
             __size_of_ADC_Init 000D                   _Flag_AllClear 06A8                 SW_Func@sw_time1 00A7  
               SW_Func@sw_time2 00A6                     ?_ramInitial 0029          __size_of_fan_ramp_proc 0049  
                __end_of_inital 07C9                   __pbitbssBANK0 01A8                       _Kcomm_ISR 01A1  
                  _B_KEYHX_Flag 01AA                     __end_ofPL10 0300                     __end_ofPL12 01A1  
                   __end_ofPL14 04B7                     __end_ofPL16 05B3                     __end_ofPL18 0306  
           start_initialization 0018                      _sysinitial 064B                    _kcomm_wakeup 0025  
                  _kcomm_rx_buf 00B9                    _kcomm_tx_buf 00BB               ??_Key_Application 0000  
                 EXIT_BANK_SAVE 000F                   ?_trigger_warn 0029               __size_of_Key_Func 0031  
                ?_Flag_AllClear 0029                    ??_Sleep_Func 0000                    ??_Timer1_Isr 002E  
          adc_read_vdd@ad_delay 00BC  Battery_Update@low_clr_debounce 00AD                     __pdataBANK1 00C8  
                      ??_inital 0000                      ?_Kcomm_ISR 0029                       ___latbits 0000  
                 __pcstackBANK0 0029                   __pcstackBANK1 00BC              comm_parse_rx@check 0031  
                 ?_adc_read_vdd 0031                 _warn_flash_proc 067B                       _g_k1_prev 001E  
                     _g_k2_prev 00B3              __end_of_Sleep_Func 0520                   _fan_ramp_proc 0529  
            __end_of_Timer1_Isr 05AD               __size_of_delay_us 001A             __size_of_ramInitial 0011  
                ??_trigger_warn 0000                        ?_SW_Func 0029          LedMode_Func@breath_dir 00C9  
        LedMode_Func@breath_cnt 00B0              adc_read_vdd@result 00BE                   _g_current_pwm 0012  
                      REV_BANK1 05A6                       _g_vdd_adc 0010          LedMode_Func@disp_level 001A  
                     __pstrings 07C9                       __pswtext1 07F0       fan_ramp_proc@target_fixed 0033  
                   ?_sysinitial 0029                        _ADC_Init 07D6                  ??_adc_read_vdd 0000  
                      ?_set_fan 0029                  ?_fan_ramp_proc 0029                 comm_parse_rx@hi 0032  
               comm_parse_rx@lo 0034                        Addresses 0000                        _T2LOAD_8 028A  
                      _T2LOAD_9 028B                  _g_pwr_delay_ms 009C               interrupt_function 0008  
            __end_of_c_fan_duty 07D6                 ??_Flag_AllClear 0000                       delay_us@i 0033  
       __size_of_Battery_Update 00C9                 _B_LowPower_Flag 01AD               Comm_Process@rx_ok 00BC  
                      _TIMER2_8 028C                        _TIMER2_9 028D                        _MTP_CLEN 0201  
       __end_of_warn_flash_proc 06A8                     __stringbase 07CE                     ??_Kcomm_ISR 0000  
         __end_of_T1_PWM_inital 07BB                        _Key_Func 061A                    _B_OnOff_Flag 01AE  
                   _kcomm_cycle 00B7                     Delay_Init@i 0033                __size_of_SW_Func 001A  
                   _kcomm_timer 0018                     _kcomm_state 0028          __size_of_show_gear_led 0017  
           Key_Application@edge 00C1             __size_of_sysinitial 0030                    ??_ramInitial 0000  
          __end_of_trigger_warn 07F0              __end_of__stringtab 07CF                 ??_fan_ramp_proc 0031  
               _Key_Application 001A              Key_Func@key1_time1 00AB              Key_Func@key1_time2 00AA  
            Key_Func@key2_time1 00A9              Key_Func@key2_time2 00A8                        _delay_us 0718  
                      __ptext10 0306                        __ptext11 061A                        __ptext20 079C  
                      __ptext12 001A                        __ptext21 06F7                        __ptext13 067B  
                      __ptext22 06D4                        __ptext14 074C                        __ptext23 0572  
                      __ptext15 07E3                        __ptext24 01A1                        __ptext16 0763  
                      __ptext25 0777                        __ptext17 03E0                        __ptext18 05B3  
                      __ptext19 06A8                __size_of_set_fan 0014       Battery_Update@startup_cnt 00C8  
            __end_of_ramInitial 079C                   __size_of_main 0032          __size_of_comm_parse_rx 0023  
                 ?_LedMode_Func 0029            __end_of_adc_read_vdd 05E8                ?_warn_flash_proc 0029  
                 _show_gear_led 074C                   ?_Comm_Process 0029               show_gear_led@gear 0031  
            Key_Application@cur 00C2                        intlevel1 0000                   _Kcomm_ISR$624 002C  
                _Battery_Update 03E0                  ??_LedMode_Func 0000                       stringcode 07C9  
       __end_of_Key_Application 018C             trigger_warn@led_num 0031                   _comm_parse_rx 06D4  
                ?_show_gear_led 0029                  ??_Comm_Process 0000                    ??_sysinitial 0000  
                      stringdir 07C9                        stringtab 07C9          __end_of_Battery_Update 04A9  
         Battery_Update@adc_val 0033                 _g_battery_empty 0021                  _sysinitial$240 00BC  
                _sysinitial$241 00BE                  _sysinitial$242 00C0                  _sysinitial$243 00C2  
                _sysinitial$244 00C4                  _sysinitial$245 00C6  
