

Microchip Technology PIC PRO Macro Assembler V1.45 build -152302408 
                                                                                               Wed Jul 08 15:07:11 2026


     1                           	processor	18m121b1
     2                           	opt	pw 120
     3                           	opt	pm
     4                           	psect	idataBANK0,global,class=CODE,delta=2
     5                           	psect	idataBANK1,global,class=CODE,delta=2
     6                           	psect	strings,global,class=STRING,delta=2
     7                           	psect	cinit,global,class=CODE,merge=1,delta=2
     8                           	psect	bssBANK0,global,class=BANK0,space=1,delta=1
     9                           	psect	dataBANK0,global,class=BANK0,space=1,delta=1
    10                           	psect	bssBANK1,global,class=BANK1,space=1,delta=1
    11                           	psect	dataBANK1,global,class=BANK1,space=1,delta=1
    12                           	psect	cstackBANK1,global,class=BANK1,space=1,delta=1
    13                           	psect	cstackCOMMON,global,class=COMMON,space=1,delta=1
    14                           	psect	cstackBANK0,global,class=BANK0,space=1,delta=1
    15                           	psect	maintext,global,class=CODE,split=1,delta=2
    16                           	psect	text1,local,class=CODE,merge=1,delta=2
    17                           	psect	text2,local,class=CODE,merge=1,delta=2
    18                           	psect	text3,local,class=CODE,merge=1,delta=2
    19                           	psect	text4,local,class=CODE,merge=1,delta=2
    20                           	psect	text5,local,class=CODE,merge=1,delta=2
    21                           	psect	text6,local,class=CODE,merge=1,delta=2
    22                           	psect	text7,local,class=CODE,merge=1,delta=2
    23                           	psect	text8,local,class=CODE,merge=1,delta=2
    24                           	psect	text9,local,class=CODE,merge=1,delta=2
    25                           	psect	text10,local,class=CODE,merge=1,delta=2
    26                           	psect	text11,local,class=CODE,merge=1,delta=2
    27                           	psect	text12,local,class=CODE,merge=1,delta=2
    28                           	psect	text13,local,class=CODE,merge=1,delta=2
    29                           	psect	text14,local,class=CODE,merge=1,delta=2
    30                           	psect	text15,local,class=CODE,merge=1,delta=2
    31                           	psect	text16,local,class=CODE,merge=1,delta=2
    32                           	psect	text17,local,class=CODE,merge=1,delta=2
    33                           	psect	text18,local,class=CODE,merge=1,delta=2
    34                           	psect	text19,local,class=CODE,merge=1,delta=2
    35                           	psect	text20,local,class=CODE,merge=1,delta=2,group=1
    36                           	psect	text21,local,class=CODE,merge=1,delta=2,group=1
    37                           	psect	text22,local,class=CODE,merge=1,delta=2
    38                           	psect	text23,local,class=CODE,merge=1,delta=2
    39                           	psect	text24,local,class=CODE,merge=1,delta=2
    40                           	psect	text25,local,class=CODE,merge=1,delta=2
    41                           	psect	intentry,global,class=CODE,delta=2
    42                           	psect	text26,local,class=CODE,merge=1,delta=2
    43                           	psect	text27,local,class=CODE,merge=1,delta=2
    44                           	psect	pa_nodes0,global,class=CODE,delta=2
    45                           	psect	pa_nodes0,global,class=CODE,delta=2
    46                           	dabs	1,0x5B,1,_ADCON1
    47                           	dabs	1,0x5A,1,_ADCON0
    48                           	dabs	1,0x59,1,_ADRESH
    49                           	dabs	1,0x58,1,_ADRESL
    50                           	dabs	1,0x57,1,_ANSELH
    51                           	dabs	1,0x56,1,_ANSELL
    52                           	dabs	1,0x55,1,_PWMSET
    53                           	dabs	1,0x54,1,_PWM1P
    54                           	dabs	1,0x53,1,_T2LOAD
    55                           	dabs	1,0x52,1,_T2
    56                           	dabs	1,0x51,1,_TMR2H
    57                           	dabs	1,0x50,1,_T2CON
    58                           	dabs	1,0x4F,1,_PWM0P
    59                           	dabs	1,0x4E,1,_T1LOAD
    60                           	dabs	1,0x4D,1,_T1
    61                           	dabs	1,0x4C,1,_T1CON
    62                           	dabs	1,0x4B,1,_T1CR_AUXR
    63                           	dabs	1,0x4A,1,_PMDATH
    64                           	dabs	1,0x49,1,_PMDATL
    65                           	dabs	1,0x48,1,_PMADRH
    66                           	dabs	1,0x47,1,_PMADRL
    67                           	dabs	1,0x46,1,_TRISB
    68                           	dabs	1,0x45,1,_TRISA
    69                           	dabs	1,0x43,1,_PHCON1
    70                           	dabs	1,0x42,1,_PDCON1
    71                           	dabs	1,0x41,1,_OPTION
    72                           	dabs	1,0x40,1,_PMCON
    73                           	dabs	1,0x2DE,0,_ADCS2
    74                           	dabs	1,0x5B,1
    75                           	dabs	1,0x2DD,0,_ADCS1
    76                           	dabs	1,0x5B,1
    77                           	dabs	1,0x2DC,0,_ADCS0
    78                           	dabs	1,0x5B,1
    79                           	dabs	1,0x2DB,0,_VHS2
    80                           	dabs	1,0x5B,1
    81                           	dabs	1,0x2DA,0,_VHS1
    82                           	dabs	1,0x5B,1
    83                           	dabs	1,0x2D9,0,_VHS0
    84                           	dabs	1,0x5B,1
    85                           	dabs	1,0x2D8,0,_ADREF
    86                           	dabs	1,0x5B,1
    87                           	dabs	1,0x2D5,0,_CHS3
    88                           	dabs	1,0x5A,1
    89                           	dabs	1,0x2D4,0,_CHS2
    90                           	dabs	1,0x5A,1
    91                           	dabs	1,0x2D3,0,_CHS1
    92                           	dabs	1,0x5A,1
    93                           	dabs	1,0x2D2,0,_CHS0
    94                           	dabs	1,0x5A,1
    95                           	dabs	1,0x2D1,0,_ADON
    96                           	dabs	1,0x5A,1
    97                           	dabs	1,0x2D0,0,_ADEN
    98                           	dabs	1,0x5A,1
    99                           	dabs	1,0x2BF,0,_ANSEL15
   100                           	dabs	1,0x57,1
   101                           	dabs	1,0x2BE,0,_ANSEL14
   102                           	dabs	1,0x57,1
   103                           	dabs	1,0x2BB,0,_ANSEL11
   104                           	dabs	1,0x57,1
   105                           	dabs	1,0x2BA,0,_ANSEL10
   106                           	dabs	1,0x57,1
   107                           	dabs	1,0x2B9,0,_ANSEL9
   108                           	dabs	1,0x57,1
   109                           	dabs	1,0x2B8,0,_ANSEL8
   110                           	dabs	1,0x57,1
   111                           	dabs	1,0x2B7,0,_ANSEL7
   112                           	dabs	1,0x56,1
   113                           	dabs	1,0x2B6,0,_ANSEL6
   114                           	dabs	1,0x56,1
   115                           	dabs	1,0x2B5,0,_ANSEL5
   116                           	dabs	1,0x56,1
   117                           	dabs	1,0x2B4,0,_ANSEL4
   118                           	dabs	1,0x56,1
   119                           	dabs	1,0x2B3,0,_ANSEL3
   120                           	dabs	1,0x56,1
   121                           	dabs	1,0x2B2,0,_ANSEL2
   122                           	dabs	1,0x56,1
   123                           	dabs	1,0x2B1,0,_ANSEL1
   124                           	dabs	1,0x56,1
   125                           	dabs	1,0x2B0,0,_ANSEL0
   126                           	dabs	1,0x56,1
   127                           	dabs	1,0x2A8,0,_PWMM
   128                           	dabs	1,0x55,1
   129                           	dabs	1,0x28F,0,_PWMS1
   130                           	dabs	1,0x51,1
   131                           	dabs	1,0x28E,0,_PWMS0
   132                           	dabs	1,0x51,1
   133                           	dabs	1,0x28D,0,_TIMER2_9
   134                           	dabs	1,0x51,1
   135                           	dabs	1,0x28C,0,_TIMER2_8
   136                           	dabs	1,0x51,1
   137                           	dabs	1,0x28B,0,_T2LOAD_9
   138                           	dabs	1,0x51,1
   139                           	dabs	1,0x28A,0,_T2LOAD_8
   140                           	dabs	1,0x51,1
   141                           	dabs	1,0x289,0,_PWM1_9
   142                           	dabs	1,0x51,1
   143                           	dabs	1,0x288,0,_PWM1_8
   144                           	dabs	1,0x51,1
   145                           	dabs	1,0x287,0,_T2EN
   146                           	dabs	1,0x50,1
   147                           	dabs	1,0x286,0,_PWM1E
   148                           	dabs	1,0x50,1
   149                           	dabs	1,0x285,0,_SCS
   150                           	dabs	1,0x50,1
   151                           	dabs	1,0x284,0,_T2CK1
   152                           	dabs	1,0x50,1
   153                           	dabs	1,0x283,0,_T2CK0
   154                           	dabs	1,0x50,1
   155                           	dabs	1,0x282,0,_T2PR2
   156                           	dabs	1,0x50,1
   157                           	dabs	1,0x281,0,_T2PR1
   158                           	dabs	1,0x50,1
   159                           	dabs	1,0x280,0,_T2PR0
   160                           	dabs	1,0x50,1
   161                           	dabs	1,0x267,0,_T1EN
   162                           	dabs	1,0x4C,1
   163                           	dabs	1,0x266,0,_PWM0E
   164                           	dabs	1,0x4C,1
   165                           	dabs	1,0x265,0,_T0OSCEN
   166                           	dabs	1,0x4C,1
   167                           	dabs	1,0x264,0,_T1CK1
   168                           	dabs	1,0x4C,1
   169                           	dabs	1,0x263,0,_T1CK0
   170                           	dabs	1,0x4C,1
   171                           	dabs	1,0x262,0,_T1PR2
   172                           	dabs	1,0x4C,1
   173                           	dabs	1,0x261,0,_T1PR1
   174                           	dabs	1,0x4C,1
   175                           	dabs	1,0x260,0,_T1PR0
   176                           	dabs	1,0x4C,1
   177                           	dabs	1,0x25F,0,_T0CK
   178                           	dabs	1,0x4B,1
   179                           	dabs	1,0x25E,0,_T2IE
   180                           	dabs	1,0x4B,1
   181                           	dabs	1,0x25D,0,_T2IF
   182                           	dabs	1,0x4B,1
   183                           	dabs	1,0x25C,0,_POR
   184                           	dabs	1,0x4B,1
   185                           	dabs	1,0x25B,0,_BOR
   186                           	dabs	1,0x4B,1
   187                           	dabs	1,0x25A,0,_BOREN
   188                           	dabs	1,0x4B,1
   189                           	dabs	1,0x259,0,_T1IE
   190                           	dabs	1,0x4B,1
   191                           	dabs	1,0x258,0,_T1IF
   192                           	dabs	1,0x4B,1
   193                           	dabs	1,0x237,0,_TRISB7
   194                           	dabs	1,0x46,1
   195                           	dabs	1,0x236,0,_TRISB6
   196                           	dabs	1,0x46,1
   197                           	dabs	1,0x235,0,_TRISB5
   198                           	dabs	1,0x46,1
   199                           	dabs	1,0x234,0,_TRISB4
   200                           	dabs	1,0x46,1
   201                           	dabs	1,0x233,0,_TRISB3
   202                           	dabs	1,0x46,1
   203                           	dabs	1,0x232,0,_TRISB2
   204                           	dabs	1,0x46,1
   205                           	dabs	1,0x231,0,_TRISB1
   206                           	dabs	1,0x46,1
   207                           	dabs	1,0x230,0,_TRISB0
   208                           	dabs	1,0x46,1
   209                           	dabs	1,0x22F,0,_TRISA7
   210                           	dabs	1,0x45,1
   211                           	dabs	1,0x22E,0,_TRISA6
   212                           	dabs	1,0x45,1
   213                           	dabs	1,0x22D,0,_TRISA5
   214                           	dabs	1,0x45,1
   215                           	dabs	1,0x22C,0,_TRISA4
   216                           	dabs	1,0x45,1
   217                           	dabs	1,0x22B,0,_TRISA3
   218                           	dabs	1,0x45,1
   219                           	dabs	1,0x22A,0,_TRISA2
   220                           	dabs	1,0x45,1
   221                           	dabs	1,0x229,0,_TRISA1
   222                           	dabs	1,0x45,1
   223                           	dabs	1,0x228,0,_TRISA0
   224                           	dabs	1,0x45,1
   225                           	dabs	1,0x21F,0,_PHA7
   226                           	dabs	1,0x43,1
   227                           	dabs	1,0x21E,0,_PHA6
   228                           	dabs	1,0x43,1
   229                           	dabs	1,0x21D,0,_PHA5
   230                           	dabs	1,0x43,1
   231                           	dabs	1,0x21C,0,_PHA4
   232                           	dabs	1,0x43,1
   233                           	dabs	1,0x21B,0,_PHA3
   234                           	dabs	1,0x43,1
   235                           	dabs	1,0x21A,0,_PHA2
   236                           	dabs	1,0x43,1
   237                           	dabs	1,0x219,0,_PHA1
   238                           	dabs	1,0x43,1
   239                           	dabs	1,0x218,0,_PHA0
   240                           	dabs	1,0x43,1
   241                           	dabs	1,0x217,0,_PDA7
   242                           	dabs	1,0x42,1
   243                           	dabs	1,0x216,0,_PDA6
   244                           	dabs	1,0x42,1
   245                           	dabs	1,0x215,0,_PDA5
   246                           	dabs	1,0x42,1
   247                           	dabs	1,0x214,0,_PDA4
   248                           	dabs	1,0x42,1
   249                           	dabs	1,0x213,0,_PDA3
   250                           	dabs	1,0x42,1
   251                           	dabs	1,0x212,0,_PDA2
   252                           	dabs	1,0x42,1
   253                           	dabs	1,0x211,0,_PDA1
   254                           	dabs	1,0x42,1
   255                           	dabs	1,0x210,0,_PDA0
   256                           	dabs	1,0x42,1
   257                           	dabs	1,0x20F,0,_WDTEN
   258                           	dabs	1,0x41,1
   259                           	dabs	1,0x20E,0,_INTEDG
   260                           	dabs	1,0x41,1
   261                           	dabs	1,0x20D,0,_T0CS
   262                           	dabs	1,0x41,1
   263                           	dabs	1,0x20C,0,_T0SE
   264                           	dabs	1,0x41,1
   265                           	dabs	1,0x20B,0,_PSA
   266                           	dabs	1,0x41,1
   267                           	dabs	1,0x20A,0,_PS2
   268                           	dabs	1,0x41,1
   269                           	dabs	1,0x209,0,_PS1
   270                           	dabs	1,0x41,1
   271                           	dabs	1,0x208,0,_PS0
   272                           	dabs	1,0x41,1
   273                           	dabs	1,0x201,0,_MTP_CLEN
   274                           	dabs	1,0x40,1
   275                           	dabs	1,0x200,0,_RD_FLAG
   276                           	dabs	1,0x40,1
   277                           	dabs	1,0x3E,2
   278  002E                     
   279                           	psect	idataBANK0
   280  07F6                     __pidataBANK0:	
   281                           ;
   282                           ;
   283                           ;
   284                           ;
   285                           ;
   286                           ;
   287                           ;
   288                           ;
   289                           ;
   290                           ;
   291                           ;
   292                           ;
   293                           ;
   294                           ;
   295                           ;
   296                           ;
   297                           ;
   298                           ;
   299                           ;
   300                           ;
   301                           ;
   302                           ;
   303                           ;
   304                           ;
   305                           ;
   306                           ;
   307                           ;
   308                           ;
   309                           ;
   310                           ;
   311                           ;
   312                           ;
   313                           ;
   314                           ;
   315                           ;
   316                           ;
   317                           
   318                           
   319                           ;initializer for Gear5_Duty_Update@cur_percent
   320  07F6  3455               	retlw	85
   321                           
   322                           ;initializer for LedMode_Func@breath_dir
   323  07F7  3401               	retlw	1
   324                           
   325                           	psect	idataBANK1
   326  07F8                     __pidataBANK1:	
   327                           
   328                           ;initializer for Battery_Update@startup_cnt
   329  07F8  3432               	retlw	50
   330                           
   331                           	psect	strings
   332  07D0                     __pstrings:	
   333  07D0                     stringtab:	
   334  07D0                     __stringtab:	
   335  07D0                     stringcode:	
   336  07D0                     stringdir:	
   337                           ;	String table - string pointers are 1 byte each
   338                           
   339  07D0  3007               	movlw	high stringdir
   340  07D1  008A               	movwf	10
   341  07D2  0804               	movf	4,w
   342  07D3  0A84               	incf	4,f
   343  07D4  0782               	addwf	2,f
   344  07D5                     __stringbase:	
   345  07D5  3400               	retlw	0
   346  07D6                     __end_of__stringtab:	
   347  07D6                     _c_fan_duty:	
   348  07D6  3400               	retlw	0
   349  07D7  3419               	retlw	25
   350  07D8  3432               	retlw	50
   351  07D9  3444               	retlw	68
   352  07DA  3457               	retlw	87
   353  07DB  3469               	retlw	105
   354  07DC  347C               	retlw	124
   355  07DD                     __end_of_c_fan_duty:		;_RD_FLAG
   356  000F                     _PIR	set	15
   357  000E                     _INTECON	set	14
   358  000D                     _PHCON	set	13
   359  000B                     _PDCON	set	11
   360  0009                     _IOCB	set	9
   361  0007                     _IOCA	set	7
   362  0006                     _PORTB	set	6
   363  0005                     _PORTA	set	5
   364  0004                     _FSR	set	4
   365  0001                     _T0	set	1
   366  0000                     _INDF	set	0
   367  007A                     _ADIF	set	122
   368  0079                     _PAIE	set	121
   369  0078                     _PAIF	set	120
   370  0077                     _GIE	set	119
   371  0074                     _PBIF	set	116
   372  0073                     _T0IF	set	115
   373  0071                     _PBIE	set	113
   374  0070                     _T0IE	set	112
   375  0036                     _PORTB6	set	54
   376  0032                     _PORTB2	set	50
   377  0031                     _PORTB1	set	49
   378  0030                     _PORTB0	set	48
   379  002F                     _PORTA7	set	47
   380  002E                     _PORTA6	set	46
   381  002C                     _PORTA4	set	44
   382  002B                     _PORTA3	set	43
   383  002A                     _PORTA2	set	42
   384  0029                     _PORTA1	set	41
   385                           
   386                           	psect	cinit
   387  0016                     start_initialization:	
   388  0016                     __initialization:	
   389                           ; #config settings
   390                           
   391  0016                     end_of_initialization:	
   392  0016                     __end_of__initialization:	
   393                           ;End of C runtime variable initialization code
   394                           
   395  0016  0183               	clrf	3
   396  0017  2DB1               	ljmp	_main	;jump to C main() function
   397                           
   398                           	psect	bssBANK0
   399  0010                     __pbssBANK0:	
   400  0010                     _g_vdd_adc:	
   401  0010                     	ds	2
   402  0012                     _g_current_pwm:	
   403  0012                     	ds	2
   404  0014                     _kcomm_timer:	
   405  0014                     	ds	2
   406  0016                     LedMode_Func@breath_cnt:	
   407  0016                     	ds	1
   408  0017                     LedMode_Func@breath_duty:	
   409  0017                     	ds	1
   410  0018                     LedMode_Func@chg_pwm_cnt:	
   411  0018                     	ds	1
   412  0019                     _level:	
   413  0019                     	ds	1
   414  001A                     _g_k2_prev:	
   415  001A                     	ds	1
   416  001B                     _g_k1_prev:	
   417  001B                     	ds	1
   418  001C                     _g_warn_led:	
   419  001C                     	ds	1
   420  001D                     _g_warn_flash:	
   421  001D                     	ds	1
   422  001E                     _g_battery_empty:	
   423  001E                     	ds	1
   424  001F                     _g_target_pwm:	
   425  001F                     	ds	1
   426  0020                     _g_gear:	
   427  0020                     	ds	1
   428  0021                     _DIY_Flag2:	
   429  0021                     	ds	1
   430  0022                     _DIY_Flag1:	
   431  0022                     	ds	1
   432  0023                     _adcon1_val:	
   433  0023                     	ds	1
   434  0024                     _kcomm_wakeup:	
   435  0024                     	ds	1
   436  0025                     _kcomm_rx_done:	
   437  0025                     	ds	1
   438  0026                     _kcomm_bit_idx:	
   439  0026                     	ds	1
   440  0027                     _kcomm_state:	
   441  0027                     	ds	1
   442                           
   443                           	psect	dataBANK0
   444  0035                     __pdataBANK0:	
   445  0035                     Gear5_Duty_Update@cur_percent:	
   446  0035                     	ds	1
   447  0036                     LedMode_Func@breath_dir:	
   448  0036                     	ds	1
   449                           
   450                           	psect	bssBANK1
   451  0090                     __pbssBANK1:	
   452  0090                     Gear5_Duty_Update@sec_cnt:	
   453  0090                     	ds	2
   454  0092                     Gear5_Duty_Update@ms_sub:	
   455  0092                     	ds	2
   456  0094                     Battery_Update@loop_sum:	
   457  0094                     	ds	2
   458  0096                     Sleep_Func@Sleep_Time:	
   459  0096                     	ds	2
   460  0098                     _g_slave_alive_ms:	
   461  0098                     	ds	2
   462  009A                     _g_pwr_delay_ms:	
   463  009A                     	ds	2
   464  009C                     _g_offshow_ms:	
   465  009C                     	ds	2
   466  009E                     _g_k2_hold_ms:	
   467  009E                     	ds	2
   468  00A0                     _g_k1_hold_ms:	
   469  00A0                     	ds	2
   470  00A2                     _kcomm_wakeup_cnt:	
   471  00A2                     	ds	2
   472  00A4                     _kcomm_low_cnt:	
   473  00A4                     	ds	2
   474  00A6                     Timer1_Isr@pwm_cnt:	
   475  00A6                     	ds	1
   476  00A7                     Timer1_Isr@timer_ms:	
   477  00A7                     	ds	1
   478  00A8                     Kcomm_ISR@bit_wait_fall:	
   479  00A8                     	ds	1
   480  00A9                     Key_Application@off_key_prev:	
   481  00A9                     	ds	1
   482  00AA                     SW_Func@sw_time2:	
   483  00AA                     	ds	1
   484  00AB                     SW_Func@sw_time1:	
   485  00AB                     	ds	1
   486  00AC                     Key_Func@key2_time2:	
   487  00AC                     	ds	1
   488  00AD                     Key_Func@key2_time1:	
   489  00AD                     	ds	1
   490  00AE                     Key_Func@key1_time2:	
   491  00AE                     	ds	1
   492  00AF                     Key_Func@key1_time1:	
   493  00AF                     	ds	1
   494  00B0                     Battery_Update@low_clr_debounce:	
   495  00B0                     	ds	1
   496  00B1                     Battery_Update@low_debounce:	
   497  00B1                     	ds	1
   498  00B2                     Battery_Update@loop_num:	
   499  00B2                     	ds	1
   500  00B3                     _g_overclock_pwm:	
   501  00B3                     	ds	1
   502  00B4                     _g_warn_cnt:	
   503  00B4                     	ds	1
   504  00B5                     _kcomm_tx_done:	
   505  00B5                     	ds	1
   506  00B6                     _kcomm_rx_shift:	
   507  00B6                     	ds	1
   508  00B7                     _kcomm_cycle:	
   509  00B7                     	ds	1
   510  00B8                     _kcomm_turn:	
   511  00B8                     	ds	1
   512  00B9                     _kcomm_rx_buf:	
   513  00B9                     	ds	1
   514  00BA                     _kcomm_tx_shift:	
   515  00BA                     	ds	1
   516  00BB                     _kcomm_tx_buf:	
   517  00BB                     	ds	1
   518                           
   519                           	psect	dataBANK1
   520  00C8                     __pdataBANK1:	
   521  00C8                     Battery_Update@startup_cnt:	
   522  00C8                     	ds	1
   523                           
   524                           	psect	cstackBANK1
   525  00BC                     __pcstackBANK1:	
   526  00BC                     ?___lwdiv:	
   527  00BC                     _Key_Application$619:	
   528  00BC                     _sysinitial$240:	
   529                           ; 2 bytes @ 0x0
   530                           
   531  00BC                     ___lwdiv@divisor:	
   532                           ; 1 bytes @ 0x0
   533                           
   534                           
   535                           ; 2 bytes @ 0x0
   536                           ; 2 bytes @ 0x0
   537  00BC                     	ds	1
   538  00BD                     Key_Application@edge:	
   539                           
   540                           ; 1 bytes @ 0x1
   541  00BD                     	ds	1
   542  00BE                     Key_Application@cur:	
   543  00BE                     _sysinitial$241:	
   544  00BE                     ___lwdiv@dividend:	
   545                           ; 1 bytes @ 0x2
   546                           
   547                           
   548                           ; 2 bytes @ 0x2
   549                           ; 2 bytes @ 0x2
   550  00BE                     	ds	2
   551  00C0                     ___lwdiv@counter:	
   552  00C0                     _sysinitial$242:	
   553                           
   554                           ; 1 bytes @ 0x4
   555                           ; 2 bytes @ 0x4
   556  00C0                     	ds	1
   557  00C1                     ___lwdiv@quotient:	
   558                           
   559                           ; 2 bytes @ 0x5
   560  00C1                     	ds	1
   561  00C2                     _sysinitial$243:	
   562                           
   563                           ; 2 bytes @ 0x6
   564  00C2                     	ds	2
   565  00C4                     _sysinitial$244:	
   566                           
   567                           ; 2 bytes @ 0x8
   568  00C4                     	ds	2
   569  00C6                     _sysinitial$245:	
   570                           
   571                           ; 2 bytes @ 0xA
   572  00C6                     	ds	2
   573                           
   574                           	psect	cstackCOMMON
   575  0000                     __pcstackCOMMON:	
   576  0000                     ??_ADC_Init:	
   577  0000                     ??_show_gear_led:	
   578  0000                     ??_T1_PWM_inital:	
   579                           ; 1 bytes @ 0x0
   580                           
   581  0000                     ??_inital:	
   582                           ; 1 bytes @ 0x0
   583                           
   584  0000                     ??_sysinitial:	
   585                           ; 1 bytes @ 0x0
   586                           
   587  0000                     ??_ramInitial:	
   588                           ; 1 bytes @ 0x0
   589                           
   590  0000                     ??_Delay_Init:	
   591                           ; 1 bytes @ 0x0
   592                           
   593  0000                     ??_delay_us:	
   594                           ; 1 bytes @ 0x0
   595                           
   596  0000                     ??_Sleep_Func:	
   597                           ; 1 bytes @ 0x0
   598                           
   599  0000                     ??_adc_read_vdd:	
   600                           ; 1 bytes @ 0x0
   601                           
   602  0000                     ??_LedMode_Func:	
   603                           ; 1 bytes @ 0x0
   604                           
   605  0000                     ??_set_fan:	
   606                           ; 1 bytes @ 0x0
   607                           
   608  0000                     ??_Gear5_Duty_Update:	
   609                           ; 1 bytes @ 0x0
   610                           
   611  0000                     ??_trigger_warn:	
   612                           ; 1 bytes @ 0x0
   613                           
   614  0000                     ??_warn_flash_proc:	
   615                           ; 1 bytes @ 0x0
   616                           
   617  0000                     ??_Key_Func:	
   618                           ; 1 bytes @ 0x0
   619                           
   620  0000                     ??_SW_Func:	
   621                           ; 1 bytes @ 0x0
   622                           
   623  0000                     ??_Key_Application:	
   624                           ; 1 bytes @ 0x0
   625                           
   626  0000                     ??_comm_pack_tx:	
   627                           ; 1 bytes @ 0x0
   628                           
   629  0000                     ??_comm_parse_rx:	
   630                           ; 1 bytes @ 0x0
   631                           
   632  0000                     ??_Kcomm_ISR:	
   633                           ; 1 bytes @ 0x0
   634                           
   635  0000                     ??_Comm_Process:	
   636                           ; 1 bytes @ 0x0
   637                           
   638  0000                     ??_main:	
   639                           ; 1 bytes @ 0x0
   640                           
   641  0000                     ??___wmul:	
   642                           ; 1 bytes @ 0x0
   643                           
   644  0000                     ??___lwdiv:	
   645                           ; 1 bytes @ 0x0
   646                           
   647                           
   648                           	psect	cstackBANK0
   649  0028                     __pcstackBANK0:	
   650                           ; 1 bytes @ 0x0
   651                           
   652  0028                     ?_ADC_Init:	
   653                           ; 1 bytes @ 0x0
   654                           
   655  0028                     ?_show_gear_led:	
   656  0028                     ?_T1_PWM_inital:	
   657                           ; 1 bytes @ 0x0
   658                           
   659  0028                     ?_inital:	
   660                           ; 1 bytes @ 0x0
   661                           
   662  0028                     ?_sysinitial:	
   663                           ; 1 bytes @ 0x0
   664                           
   665  0028                     ?_ramInitial:	
   666                           ; 1 bytes @ 0x0
   667                           
   668  0028                     ?_Sleep_Func:	
   669                           ; 1 bytes @ 0x0
   670                           
   671  0028                     ?_LedMode_Func:	
   672                           ; 1 bytes @ 0x0
   673                           
   674  0028                     ?_Battery_Update:	
   675                           ; 1 bytes @ 0x0
   676                           
   677  0028                     ?_set_fan:	
   678                           ; 1 bytes @ 0x0
   679                           
   680  0028                     ?_Gear5_Duty_Update:	
   681                           ; 1 bytes @ 0x0
   682                           
   683  0028                     ?_fan_ramp_proc:	
   684                           ; 1 bytes @ 0x0
   685                           
   686  0028                     ?_trigger_warn:	
   687                           ; 1 bytes @ 0x0
   688                           
   689  0028                     ?_warn_flash_proc:	
   690                           ; 1 bytes @ 0x0
   691                           
   692  0028                     ?_Key_Func:	
   693                           ; 1 bytes @ 0x0
   694                           
   695  0028                     ?_SW_Func:	
   696                           ; 1 bytes @ 0x0
   697                           
   698  0028                     ?_Key_Application:	
   699                           ; 1 bytes @ 0x0
   700                           
   701  0028                     ?_comm_pack_tx:	
   702                           ; 1 bytes @ 0x0
   703                           
   704  0028                     ?_comm_parse_rx:	
   705                           ; 1 bytes @ 0x0
   706                           
   707  0028                     ?_Kcomm_ISR:	
   708                           ; 1 bytes @ 0x0
   709                           
   710  0028                     ?_Comm_Process:	
   711                           ; 1 bytes @ 0x0
   712                           
   713  0028                     ?_main:	
   714                           ; 1 bytes @ 0x0
   715                           
   716  0028                     ?_Timer1_Isr:	
   717                           ; 1 bytes @ 0x0
   718                           
   719  0028                     comm_pack_tx@hi:	
   720                           ; 1 bytes @ 0x0
   721                           
   722                           
   723                           ; 1 bytes @ 0x0
   724                           ; 1 bytes @ 0x0
   725  0028                     	ds	1
   726  0029                     comm_pack_tx@result:	
   727                           
   728                           ; 1 bytes @ 0x1
   729  0029                     	ds	1
   730  002A                     comm_pack_tx@lo:	
   731                           
   732                           ; 1 bytes @ 0x2
   733  002A                     	ds	1
   734  002B                     _Kcomm_ISR$634:	
   735                           
   736                           ; 2 bytes @ 0x3
   737  002B                     	ds	2
   738  002D                     ??_Timer1_Isr:	
   739                           
   740                           ; 1 bytes @ 0x5
   741  002D                     	ds	2
   742  002F                     ?_Delay_Init:	
   743  002F                     ?_delay_us:	
   744  002F                     ??_fan_ramp_proc:	
   745                           ; 1 bytes @ 0x7
   746                           
   747  002F                     ?_adc_read_vdd:	
   748                           ; 1 bytes @ 0x7
   749                           
   750  002F                     ?___wmul:	
   751                           ; 1 bytes @ 0x7
   752                           
   753  002F                     show_gear_led@gear:	
   754                           ; 2 bytes @ 0x7
   755                           
   756  002F                     set_fan@gear:	
   757                           ; 2 bytes @ 0x7
   758                           
   759  002F                     trigger_warn@led_num:	
   760                           ; 1 bytes @ 0x7
   761                           
   762  002F                     comm_parse_rx@check:	
   763                           ; 1 bytes @ 0x7
   764                           
   765  002F                     Delay_Init@Delay_Duty:	
   766                           ; 1 bytes @ 0x7
   767                           
   768  002F                     delay_us@us:	
   769                           ; 1 bytes @ 0x7
   770                           
   771  002F                     ___wmul@multiplier:	
   772                           ; 2 bytes @ 0x7
   773                           
   774                           
   775                           ; 2 bytes @ 0x7
   776                           ; 2 bytes @ 0x7
   777  002F                     	ds	1
   778  0030                     comm_parse_rx@hi:	
   779                           
   780                           ; 1 bytes @ 0x8
   781  0030                     	ds	1
   782  0031                     comm_parse_rx@raw:	
   783  0031                     Delay_Init@i:	
   784  0031                     delay_us@i:	
   785                           ; 1 bytes @ 0x9
   786                           
   787  0031                     adc_read_vdd@result:	
   788                           ; 2 bytes @ 0x9
   789                           
   790  0031                     fan_ramp_proc@target_fixed:	
   791                           ; 2 bytes @ 0x9
   792                           
   793  0031                     ___wmul@multiplicand:	
   794                           ; 2 bytes @ 0x9
   795                           
   796                           
   797                           ; 2 bytes @ 0x9
   798                           ; 2 bytes @ 0x9
   799  0031                     	ds	1
   800  0032                     comm_parse_rx@lo:	
   801                           
   802                           ; 1 bytes @ 0xA
   803  0032                     	ds	1
   804  0033                     ??_Battery_Update:	
   805  0033                     Comm_Process@rx_ok:	
   806  0033                     ___wmul@product:	
   807                           ; 1 bytes @ 0xB
   808                           
   809                           
   810                           ; 1 bytes @ 0xB
   811                           ; 2 bytes @ 0xB
   812  0033                     	ds	2
   813                           
   814                           	psect	maintext
   815  05B1                     __pmaintext:	
   816  05B1                     _main:	
   817 ;;
   818 ;;Main: autosize = 0, tempsize = 0, incstack = 0, save=0
   819 ;;
   820 ;; *************** function _main *****************
   821 ;; Defined at:
   822 ;;		line 1424 in file "main.c"
   823 ;; Parameters:    Size  Location     Type
   824 ;;		None
   825 ;; Auto vars:     Size  Location     Type
   826 ;;		None
   827 ;; Return value:  Size  Location     Type
   828 ;;                  1    wreg      void 
   829 ;; Registers used:
   830 ;;		wreg, fsr0l, fsr0h, status,2, status,0, pclath, cstack
   831 ;; Tracked objects:
   832 ;;		On entry : B00/0
   833 ;;		On exit  : 0/0
   834 ;;		Unchanged: 0/0
   835 ;; Data sizes:     COMMON   BANK0   BANK1
   836 ;;      Params:         0       0       0
   837 ;;      Locals:         0       0       0
   838 ;;      Temps:          0       0       0
   839 ;;      Totals:         0       0       0
   840 ;;Total ram usage:        0 bytes
   841 ;; Hardware stack levels required when called:    6
   842 ;; This function calls:
   843 ;;		_ADC_Init
   844 ;;		_Battery_Update
   845 ;;		_Comm_Process
   846 ;;		_Delay_Init
   847 ;;		_Gear5_Duty_Update
   848 ;;		_Key_Application
   849 ;;		_Key_Func
   850 ;;		_LedMode_Func
   851 ;;		_SW_Func
   852 ;;		_Sleep_Func
   853 ;;		_T1_PWM_inital
   854 ;;		_fan_ramp_proc
   855 ;;		_inital
   856 ;;		_ramInitial
   857 ;;		_set_fan
   858 ;;		_sysinitial
   859 ;; This function is called by:
   860 ;;		Startup code after reset
   861 ;; This function uses a non-reentrant model
   862 ;;
   863                           ;psect for function _main
   864                           
   865                           
   866                           ;main.c: 1426: ramInitial();
   867                           ;incstack = 0
   868                           ; Regs used in _main: [wreg-fsr0h+status,2+status,0+pclath+cstack]
   869  05B1  2792               	fcall	_ramInitial
   870                           
   871                           ;main.c: 1427: inital();
   872  05B2  27C2               	fcall	_inital
   873                           
   874                           ;main.c: 1428: Delay_Init(200);
   875  05B3  30C8               	movlw	200
   876  05B4  00AF               	movwf	Delay_Init@Delay_Duty
   877  05B5  01B0               	clrf	Delay_Init@Delay_Duty+1
   878  05B6  27A3               	fcall	_Delay_Init
   879                           
   880                           ;main.c: 1429: ADC_Init();
   881  05B7  27DD               	fcall	_ADC_Init
   882                           
   883                           ;main.c: 1430: T1_PWM_inital();
   884  05B8  27B3               	fcall	_T1_PWM_inital
   885                           
   886                           ;main.c: 1431: sysinitial();
   887  05B9  2619               	fcall	_sysinitial
   888                           
   889                           ;main.c: 1432: WDTEN = 1;
   890  05BA  17C1               	bsf	65,7	;volatile
   891                           
   892                           ;main.c: 1434: (PORTB1 = 1); (PORTB0 = 1); (PORTA7 = 1); (PORTA6 = 1); (PORTA4 = 1);
   893  05BB  22D0               	fcall	PL2	;call to abstracted procedure
   894                           
   895                           ;main.c: 1435: g_vdd_adc = 3308u;
   896  05BC  30EC               	movlw	236
   897  05BD  0090               	movwf	_g_vdd_adc
   898  05BE  300C               	movlw	12
   899  05BF  0091               	movwf	_g_vdd_adc+1
   900                           
   901                           ;main.c: 1436: set_fan(0);
   902  05C0  3000               	movlw	0
   903  05C1  276D               	fcall	_set_fan
   904  05C2                     l5850:	
   905                           
   906                           ;main.c: 1439: {
   907                           ;main.c: 1440: T0IE = 1;
   908  05C2  1283               	bcf	3,5	;RP0=0, select bank0
   909  05C3  140E               	bsf	14,0	;volatile
   910                           
   911                           ;main.c: 1441: GIE = 1;
   912  05C4  178E               	bsf	14,7	;volatile
   913                           
   914                           ;main.c: 1442: if(DIY_Flag1.OnrBit.b0)
   915  05C5  1C22               	btfss	_DIY_Flag1,0
   916  05C6  2DC2               	goto	l5850
   917                           
   918                           ;main.c: 1443: {
   919                           ;main.c: 1444: DIY_Flag1.OnrBit.b0 = 0;
   920  05C7  1022               	bcf	_DIY_Flag1,0
   921  05C8  0064               	clrwdt	;# 
   922                           
   923                           ;main.c: 1450: Comm_Process();
   924  05C9  26C6               	fcall	_Comm_Process
   925                           
   926                           ;main.c: 1451: if(g_slave_alive_ms > 0)
   927  05CA  1683               	bsf	3,5	;RP0=1, select bank1
   928  05CB  0818               	movf	_g_slave_alive_ms^(0+128),w
   929  05CC  0419               	iorwf	(_g_slave_alive_ms+1)^(0+128),w
   930  05CD  1903               	btfsc	3,2
   931  05CE  2DD6               	goto	l1401
   932                           
   933                           ;main.c: 1452: {
   934                           ;main.c: 1453: g_slave_alive_ms--;
   935  05CF  3001               	movlw	1
   936  05D0  0298               	subwf	_g_slave_alive_ms^(0+128),f
   937  05D1  3000               	movlw	0
   938  05D2  1C03               	btfss	3,0
   939  05D3  0399               	decf	(_g_slave_alive_ms+1)^(0+128),f
   940  05D4  0299               	subwf	(_g_slave_alive_ms+1)^(0+128),f
   941                           
   942                           ;main.c: 1454: }
   943  05D5  2DDF               	goto	l5872
   944  05D6                     l1401:	
   945                           
   946                           ;main.c: 1455: else
   947                           ;main.c: 1456: {
   948                           ;main.c: 1457: if(DIY_Flag2.OnrBit.b2 || DIY_Flag2.OnrBit.b3)
   949  05D6  1283               	bcf	3,5	;RP0=0, select bank0
   950  05D7  1921               	btfsc	_DIY_Flag2,2
   951  05D8  2DDB               	goto	l5866
   952  05D9  1DA1               	btfss	_DIY_Flag2,3
   953  05DA  2DDD               	goto	l5868
   954  05DB                     l5866:	
   955                           
   956                           ;main.c: 1458: {
   957                           ;main.c: 1459: g_gear = 0;
   958  05DB  01A0               	clrf	_g_gear
   959                           
   960                           ;main.c: 1460: g_warn_flash = 0;
   961  05DC  019D               	clrf	_g_warn_flash
   962  05DD                     l5868:	
   963                           
   964                           ;main.c: 1461: }
   965                           ;main.c: 1463: DIY_Flag2.OnrBit.b2 = 0;
   966  05DD  1121               	bcf	_DIY_Flag2,2
   967                           
   968                           ;main.c: 1464: DIY_Flag2.OnrBit.b3 = 0;
   969  05DE  11A1               	bcf	_DIY_Flag2,3
   970  05DF                     l5872:	
   971                           
   972                           ;main.c: 1465: }
   973                           ;main.c: 1467: Battery_Update();
   974  05DF  22DC               	fcall	_Battery_Update
   975                           
   976                           ;main.c: 1468: Key_Func();
   977  05E0  25E8               	fcall	_Key_Func
   978                           
   979                           ;main.c: 1469: SW_Func();
   980  05E1  26A1               	fcall	_SW_Func
   981                           
   982                           ;main.c: 1470: Key_Application();
   983  05E2  218C               	fcall	_Key_Application
   984                           
   985                           ;main.c: 1471: Gear5_Duty_Update();
   986  05E3  24BD               	fcall	_Gear5_Duty_Update
   987                           
   988                           ;main.c: 1472: fan_ramp_proc();
   989  05E4  2522               	fcall	_fan_ramp_proc
   990                           
   991                           ;main.c: 1473: LedMode_Func();
   992  05E5  2394               	fcall	_LedMode_Func
   993                           
   994                           ;main.c: 1474: Sleep_Func();
   995  05E6  244B               	fcall	_Sleep_Func
   996  05E7  2DC2               	goto	l5850
   997  05E8                     __end_of_main:	
   998                           
   999                           	psect	text1
  1000  0792                     __ptext1:	
  1001  0792                     _ramInitial:	
  1002 ;; *************** function _ramInitial *****************
  1003 ;; Defined at:
  1004 ;;		line 68 in file "inital.c"
  1005 ;; Parameters:    Size  Location     Type
  1006 ;;		None
  1007 ;; Auto vars:     Size  Location     Type
  1008 ;;		None
  1009 ;; Return value:  Size  Location     Type
  1010 ;;                  1    wreg      void 
  1011 ;; Registers used:
  1012 ;;		wreg, status,2, status,0
  1013 ;; Tracked objects:
  1014 ;;		On entry : B00/0
  1015 ;;		On exit  : B00/0
  1016 ;;		Unchanged: A00/0
  1017 ;; Data sizes:     COMMON   BANK0   BANK1
  1018 ;;      Params:         0       0       0
  1019 ;;      Locals:         0       0       0
  1020 ;;      Temps:          0       0       0
  1021 ;;      Totals:         0       0       0
  1022 ;;Total ram usage:        0 bytes
  1023 ;; Hardware stack levels used:    1
  1024 ;; Hardware stack levels required when called:    3
  1025 ;; This function calls:
  1026 ;;		Nothing
  1027 ;; This function is called by:
  1028 ;;		_main
  1029 ;; This function uses a non-reentrant model
  1030 ;;
  1031                           ;psect for function _ramInitial
  1032                           
  1033                           
  1034                           ;inital.c: 70: FSR=0X3f;
  1035                           ;incstack = 0
  1036                           ; Regs used in _ramInitial: [wreg+status,2+status,0]
  1037  0792  303F               	movlw	63
  1038  0793  0084               	movwf	4	;volatile
  1039  0794                     l3980:	
  1040                           
  1041                           ;inital.c: 72: INDF=0;
  1042  0794  0180               	clrf	0	;volatile
  1043                           
  1044                           ;inital.c: 73: FSR--;
  1045  0795  0384               	decf	4,f	;volatile
  1046                           
  1047                           ;inital.c: 74: }while(FSR != 0x0f);
  1048  0796  300F               	movlw	15
  1049  0797  0604               	xorwf	4,w	;volatile
  1050  0798  1D03               	btfss	3,2
  1051  0799  2F94               	goto	l3980
  1052                           
  1053                           ;inital.c: 76: FSR=0Xdf;
  1054  079A  30DF               	movlw	223
  1055  079B  0084               	movwf	4	;volatile
  1056  079C                     l3988:	
  1057                           
  1058                           ;inital.c: 78: INDF=0;
  1059  079C  0180               	clrf	0	;volatile
  1060                           
  1061                           ;inital.c: 79: FSR--;
  1062  079D  0384               	decf	4,f	;volatile
  1063                           
  1064                           ;inital.c: 80: }while(FSR != 0x8f);
  1065  079E  308F               	movlw	143
  1066  079F  0604               	xorwf	4,w	;volatile
  1067  07A0  1903               	btfsc	3,2
  1068  07A1  0008               	return
  1069  07A2  2F9C               	goto	l3988
  1070  07A3                     __end_of_ramInitial:	
  1071                           
  1072                           	psect	text2
  1073  0522                     __ptext2:	
  1074  0522                     _fan_ramp_proc:	
  1075 ;; *************** function _fan_ramp_proc *****************
  1076 ;; Defined at:
  1077 ;;		line 605 in file "main.c"
  1078 ;; Parameters:    Size  Location     Type
  1079 ;;		None
  1080 ;; Auto vars:     Size  Location     Type
  1081 ;;  target_fixed    2    9[BANK0 ] unsigned int 
  1082 ;; Return value:  Size  Location     Type
  1083 ;;                  1    wreg      void 
  1084 ;; Registers used:
  1085 ;;		wreg, status,2, status,0
  1086 ;; Tracked objects:
  1087 ;;		On entry : 0/100
  1088 ;;		On exit  : 100/0
  1089 ;;		Unchanged: 0/0
  1090 ;; Data sizes:     COMMON   BANK0   BANK1
  1091 ;;      Params:         0       0       0
  1092 ;;      Locals:         0       2       0
  1093 ;;      Temps:          0       2       0
  1094 ;;      Totals:         0       4       0
  1095 ;;Total ram usage:        4 bytes
  1096 ;; Hardware stack levels used:    1
  1097 ;; Hardware stack levels required when called:    3
  1098 ;; This function calls:
  1099 ;;		Nothing
  1100 ;; This function is called by:
  1101 ;;		_main
  1102 ;; This function uses a non-reentrant model
  1103 ;;
  1104                           ;psect for function _fan_ramp_proc
  1105                           
  1106                           
  1107                           ;main.c: 607: unsigned int target_fixed = (unsigned int)g_target_pwm << 4;
  1108                           ;incstack = 0
  1109                           ; Regs used in _fan_ramp_proc: [wreg+status,2+status,0]
  1110  0522  1283               	bcf	3,5	;RP0=0, select bank0
  1111  0523  081F               	movf	_g_target_pwm,w
  1112  0524  00B1               	movwf	fan_ramp_proc@target_fixed
  1113  0525  30F0               	movlw	240
  1114  0526  01B2               	clrf	fan_ramp_proc@target_fixed+1
  1115  0527  0EB1               	swapf	fan_ramp_proc@target_fixed,f
  1116  0528  0EB2               	swapf	fan_ramp_proc@target_fixed+1,f
  1117  0529  05B2               	andwf	fan_ramp_proc@target_fixed+1,f
  1118  052A  0831               	movf	fan_ramp_proc@target_fixed,w
  1119  052B  390F               	andlw	15
  1120  052C  04B2               	iorwf	fan_ramp_proc@target_fixed+1,f
  1121  052D  30F0               	movlw	240
  1122  052E  05B1               	andwf	fan_ramp_proc@target_fixed,f
  1123                           
  1124                           ;main.c: 609: if(g_target_pwm == 0)
  1125  052F  081F               	movf	_g_target_pwm,w
  1126  0530  1D03               	btfss	3,2
  1127  0531  2D37               	goto	l4302
  1128                           
  1129                           ;main.c: 610: {
  1130                           ;main.c: 611: g_current_pwm = 0;
  1131  0532  0192               	clrf	_g_current_pwm
  1132  0533  0193               	clrf	_g_current_pwm+1
  1133                           
  1134                           ;main.c: 612: PWM0P = 0;
  1135  0534  01CF               	clrf	79	;volatile
  1136  0535                     l4298:	
  1137                           
  1138                           ;main.c: 613: PORTB2 = 0;
  1139  0535  1106               	bcf	6,2	;volatile
  1140  0536  0008               	return
  1141  0537                     l4302:	
  1142                           
  1143                           ;main.c: 615: }
  1144                           ;main.c: 617: if(g_current_pwm < target_fixed)
  1145  0537  0832               	movf	fan_ramp_proc@target_fixed+1,w
  1146  0538  0213               	subwf	_g_current_pwm+1,w
  1147  0539  1D03               	btfss	3,2
  1148  053A  2D3D               	goto	u3445
  1149  053B  0831               	movf	fan_ramp_proc@target_fixed,w
  1150  053C  0212               	subwf	_g_current_pwm,w
  1151  053D                     u3445:	
  1152  053D  1803               	btfsc	3,0
  1153  053E  2D49               	goto	l4310
  1154                           
  1155                           ;main.c: 618: {
  1156                           ;main.c: 619: g_current_pwm += 1;
  1157  053F  0A92               	incf	_g_current_pwm,f
  1158  0540  1903               	btfsc	3,2
  1159  0541  0A93               	incf	_g_current_pwm+1,f
  1160                           
  1161                           ;main.c: 620: if(g_current_pwm > target_fixed) g_current_pwm = target_fixed;
  1162  0542  0813               	movf	_g_current_pwm+1,w
  1163  0543  0232               	subwf	fan_ramp_proc@target_fixed+1,w
  1164  0544  1D03               	btfss	3,2
  1165  0545  2D5B               	goto	u3475
  1166  0546  0812               	movf	_g_current_pwm,w
  1167  0547  0231               	subwf	fan_ramp_proc@target_fixed,w
  1168  0548  2D5B               	goto	u3475
  1169  0549                     l4310:	
  1170                           
  1171                           ;main.c: 622: else if(g_current_pwm > target_fixed)
  1172  0549  0813               	movf	_g_current_pwm+1,w
  1173  054A  0232               	subwf	fan_ramp_proc@target_fixed+1,w
  1174  054B  1D03               	btfss	3,2
  1175  054C  2D4F               	goto	u3465
  1176  054D  0812               	movf	_g_current_pwm,w
  1177  054E  0231               	subwf	fan_ramp_proc@target_fixed,w
  1178  054F                     u3465:	
  1179  054F  1803               	btfsc	3,0
  1180  0550  2D61               	goto	l4316
  1181                           
  1182                           ;main.c: 623: {
  1183                           ;main.c: 624: g_current_pwm -= 1;
  1184  0551  3001               	movlw	1
  1185  0552  0292               	subwf	_g_current_pwm,f
  1186  0553  1C03               	btfss	3,0
  1187  0554  0393               	decf	_g_current_pwm+1,f
  1188                           
  1189                           ;main.c: 625: if(g_current_pwm < target_fixed) g_current_pwm = target_fixed;
  1190  0555  0832               	movf	fan_ramp_proc@target_fixed+1,w
  1191  0556  0213               	subwf	_g_current_pwm+1,w
  1192  0557  1D03               	btfss	3,2
  1193  0558  2D5B               	goto	u3475
  1194  0559  0831               	movf	fan_ramp_proc@target_fixed,w
  1195  055A  0212               	subwf	_g_current_pwm,w
  1196  055B                     u3475:	
  1197  055B  1803               	btfsc	3,0
  1198  055C  2D61               	goto	l4316
  1199  055D  0832               	movf	fan_ramp_proc@target_fixed+1,w
  1200  055E  0093               	movwf	_g_current_pwm+1
  1201  055F  0831               	movf	fan_ramp_proc@target_fixed,w
  1202  0560  0092               	movwf	_g_current_pwm
  1203  0561                     l4316:	
  1204                           
  1205                           ;main.c: 626: }
  1206                           ;main.c: 628: PWM0P = (unsigned char)(g_current_pwm >> 4);
  1207  0561  0813               	movf	_g_current_pwm+1,w
  1208  0562  00B0               	movwf	??_fan_ramp_proc+1
  1209  0563  0812               	movf	_g_current_pwm,w
  1210  0564  00AF               	movwf	??_fan_ramp_proc
  1211  0565  3004               	movlw	4
  1212  0566                     u3485:	
  1213  0566  1003               	bcf	3,0
  1214  0567  0CB0               	rrf	??_fan_ramp_proc+1,f
  1215  0568  0CAF               	rrf	??_fan_ramp_proc,f
  1216  0569  3EFF               	addlw	-1
  1217  056A  1D03               	btfss	3,2
  1218  056B  2D66               	goto	u3485
  1219  056C  082F               	movf	??_fan_ramp_proc,w
  1220  056D  00CF               	movwf	79	;volatile
  1221                           
  1222                           ;main.c: 629: if(PWM0P == 0) PORTB2 = 0;
  1223  056E  084F               	movf	79,w	;volatile
  1224  056F  1D03               	btfss	3,2
  1225  0570  0008               	return
  1226  0571  2D35               	goto	l4298
  1227  0572                     __end_of_fan_ramp_proc:	
  1228                           
  1229                           	psect	text3
  1230  07B3                     __ptext3:	
  1231  07B3                     _T1_PWM_inital:	
  1232 ;; *************** function _T1_PWM_inital *****************
  1233 ;; Defined at:
  1234 ;;		line 21 in file "pwm.c"
  1235 ;; Parameters:    Size  Location     Type
  1236 ;;		None
  1237 ;; Auto vars:     Size  Location     Type
  1238 ;;		None
  1239 ;; Return value:  Size  Location     Type
  1240 ;;                  1    wreg      void 
  1241 ;; Registers used:
  1242 ;;		wreg, status,2
  1243 ;; Tracked objects:
  1244 ;;		On entry : 100/0
  1245 ;;		On exit  : 100/0
  1246 ;;		Unchanged: 0/0
  1247 ;; Data sizes:     COMMON   BANK0   BANK1
  1248 ;;      Params:         0       0       0
  1249 ;;      Locals:         0       0       0
  1250 ;;      Temps:          0       0       0
  1251 ;;      Totals:         0       0       0
  1252 ;;Total ram usage:        0 bytes
  1253 ;; Hardware stack levels used:    1
  1254 ;; Hardware stack levels required when called:    3
  1255 ;; This function calls:
  1256 ;;		Nothing
  1257 ;; This function is called by:
  1258 ;;		_main
  1259 ;; This function uses a non-reentrant model
  1260 ;;
  1261                           ;psect for function _T1_PWM_inital
  1262                           
  1263                           
  1264                           ;pwm.c: 23: WDTEN=0;
  1265                           ;incstack = 0
  1266                           ; Regs used in _T1_PWM_inital: [wreg+status,2]
  1267  07B3  13C1               	bcf	65,7	;volatile
  1268                           
  1269                           ;pwm.c: 26: TMR2H=0x40;
  1270  07B4  3040               	movlw	64
  1271  07B5  00D1               	movwf	81	;volatile
  1272                           
  1273                           ;pwm.c: 28: T1 = 0x68;
  1274  07B6  3068               	movlw	104
  1275  07B7  00CD               	movwf	77	;volatile
  1276                           
  1277                           ;pwm.c: 30: T1LOAD = 123;
  1278  07B8  307B               	movlw	123
  1279  07B9  00CE               	movwf	78	;volatile
  1280                           
  1281                           ;pwm.c: 31: PWM0P = 0;
  1282  07BA  01CF               	clrf	79	;volatile
  1283                           
  1284                           ;pwm.c: 33: T1CON=0x45;
  1285  07BB  3045               	movlw	69
  1286  07BC  00CC               	movwf	76	;volatile
  1287                           
  1288                           ;pwm.c: 35: T1IF=0;
  1289  07BD  104B               	bcf	75,0	;volatile
  1290                           
  1291                           ;pwm.c: 37: T1EN=1;
  1292  07BE  17CC               	bsf	76,7	;volatile
  1293                           
  1294                           ;pwm.c: 38: T1IE=0;
  1295  07BF  10CB               	bcf	75,1	;volatile
  1296                           
  1297                           ;pwm.c: 40: T1CR_AUXR = 0;
  1298  07C0  01CB               	clrf	75	;volatile
  1299  07C1  0008               	return
  1300  07C2                     __end_of_T1_PWM_inital:	
  1301                           
  1302                           	psect	text4
  1303  044B                     __ptext4:	
  1304  044B                     _Sleep_Func:	
  1305 ;; *************** function _Sleep_Func *****************
  1306 ;; Defined at:
  1307 ;;		line 192 in file "main.c"
  1308 ;; Parameters:    Size  Location     Type
  1309 ;;		None
  1310 ;; Auto vars:     Size  Location     Type
  1311 ;;  temp            1    0        unsigned char 
  1312 ;; Return value:  Size  Location     Type
  1313 ;;                  1    wreg      void 
  1314 ;; Registers used:
  1315 ;;		wreg, status,2, status,0, pclath, cstack
  1316 ;; Tracked objects:
  1317 ;;		On entry : 0/0
  1318 ;;		On exit  : 0/0
  1319 ;;		Unchanged: 0/0
  1320 ;; Data sizes:     COMMON   BANK0   BANK1
  1321 ;;      Params:         0       0       0
  1322 ;;      Locals:         0       0       0
  1323 ;;      Temps:          0       0       0
  1324 ;;      Totals:         0       0       0
  1325 ;;Total ram usage:        0 bytes
  1326 ;; Hardware stack levels used:    1
  1327 ;; Hardware stack levels required when called:    5
  1328 ;; This function calls:
  1329 ;;		_ADC_Init
  1330 ;;		_delay_us
  1331 ;;		_inital
  1332 ;;		_sysinitial
  1333 ;; This function is called by:
  1334 ;;		_main
  1335 ;; This function uses a non-reentrant model
  1336 ;;
  1337                           ;psect for function _Sleep_Func
  1338                           
  1339                           
  1340                           ;main.c: 194: static unsigned int Sleep_Time = 0;
  1341                           ;main.c: 197: if(DIY_Flag2.OnrBit.b0 || DIY_Flag1.OnrBit.b5 || DIY_Flag2.OnrBit.b2 || DI
      +                          Y_Flag2.OnrBit.b3 || DIY_Flag1.OnrBit.b7 || kcomm_wakeup)
  1342                           ;incstack = 0
  1343                           ; Regs used in _Sleep_Func: [wreg+status,2+status,0+pclath+cstack]
  1344  044B  1283               	bcf	3,5	;RP0=0, select bank0
  1345  044C  1C21               	btfss	_DIY_Flag2,0
  1346  044D  1AA2               	btfsc	_DIY_Flag1,5
  1347  044E  2C57               	goto	l5272
  1348  044F  1D21               	btfss	_DIY_Flag2,2
  1349  0450  19A1               	btfsc	_DIY_Flag2,3
  1350  0451  2C57               	goto	l5272
  1351  0452  1BA2               	btfsc	_DIY_Flag1,7
  1352  0453  2C57               	goto	l5272
  1353  0454  0824               	movf	_kcomm_wakeup,w
  1354  0455  1903               	btfsc	3,2
  1355  0456  2C5A               	goto	l5274
  1356  0457                     l5272:	
  1357                           
  1358                           ;main.c: 198: {
  1359                           ;main.c: 199: Sleep_Time = 0;
  1360  0457  1683               	bsf	3,5	;RP0=1, select bank1
  1361  0458  0196               	clrf	Sleep_Func@Sleep_Time^(0+128)
  1362  0459  0197               	clrf	(Sleep_Func@Sleep_Time+1)^(0+128)
  1363  045A                     l5274:	
  1364                           
  1365                           ;main.c: 200: }
  1366                           ;main.c: 201: Sleep_Time++;
  1367  045A  1683               	bsf	3,5	;RP0=1, select bank1
  1368  045B  0A96               	incf	Sleep_Func@Sleep_Time^(0+128),f
  1369  045C  1903               	btfsc	3,2
  1370  045D  0A97               	incf	(Sleep_Func@Sleep_Time+1)^(0+128),f
  1371                           
  1372                           ;main.c: 202: if(Sleep_Time >= 1000)
  1373  045E  3003               	movlw	3
  1374  045F  0217               	subwf	(Sleep_Func@Sleep_Time+1)^(0+128),w
  1375  0460  30E8               	movlw	232
  1376  0461  1903               	btfsc	3,2
  1377  0462  0216               	subwf	Sleep_Func@Sleep_Time^(0+128),w
  1378  0463  1C03               	btfss	3,0
  1379  0464  0008               	return
  1380                           
  1381                           ;main.c: 203: {
  1382                           ;main.c: 204: Sleep_Time = 0;
  1383  0465  0196               	clrf	Sleep_Func@Sleep_Time^(0+128)
  1384  0466  0197               	clrf	(Sleep_Func@Sleep_Time+1)^(0+128)
  1385                           
  1386                           ;main.c: 205: (PORTB1 = 1); (PORTB0 = 1); (PORTA7 = 1); (PORTA6 = 1); (PORTA4 = 1);
  1387  0467  1283               	bcf	3,5	;RP0=0, select bank0
  1388  0468  22D0               	fcall	PL2	;call to abstracted procedure
  1389                           
  1390                           ;main.c: 207: GIE = 0;
  1391  0469  138E               	bcf	14,7	;volatile
  1392                           
  1393                           ;main.c: 208: T0IE = 0;
  1394  046A  100E               	bcf	14,0	;volatile
  1395                           
  1396                           ;main.c: 209: T1IE = 0;
  1397  046B  10CB               	bcf	75,1	;volatile
  1398                           
  1399                           ;main.c: 210: T2IE = 0;
  1400  046C  134B               	bcf	75,6	;volatile
  1401                           
  1402                           ;main.c: 211: INTECON = 0;
  1403  046D  018E               	clrf	14	;volatile
  1404                           
  1405                           ;main.c: 212: PIR = 0;
  1406  046E  018F               	clrf	15	;volatile
  1407                           
  1408                           ;main.c: 214: ADCON0 = 0;
  1409  046F  01DA               	clrf	90	;volatile
  1410                           
  1411                           ;main.c: 215: ADCON1 = 0;
  1412  0470  01DB               	clrf	91	;volatile
  1413                           
  1414                           ;main.c: 216: ANSELL = 0;
  1415  0471  01D6               	clrf	86	;volatile
  1416                           
  1417                           ;main.c: 217: ANSELH = 0;
  1418  0472  01D7               	clrf	87	;volatile
  1419                           
  1420                           ;main.c: 220: TRISA = 0x0E;
  1421  0473  300E               	movlw	14
  1422  0474  00C5               	movwf	69	;volatile
  1423                           
  1424                           ;main.c: 221: TRISB = 0x48;
  1425  0475  3048               	movlw	72
  1426                           
  1427                           ;main.c: 223: PHCON1 = 0xF1;
  1428                           ;main.c: 224: PHCON = 0xFF;
  1429                           ;main.c: 225: PDCON1 = 0xFF;
  1430                           ;main.c: 226: PDCON = 0xBF;
  1431  0476  24B4               	fcall	PL4	;call to abstracted procedure
  1432                           
  1433                           ;main.c: 228: delay_us(1000);
  1434  0477  30E8               	movlw	232
  1435  0478  00AF               	movwf	delay_us@us
  1436  0479  3003               	movlw	3
  1437  047A  00B0               	movwf	delay_us@us+1
  1438  047B  2724               	fcall	_delay_us
  1439                           
  1440                           ;main.c: 230: BOREN = 0;
  1441  047C  114B               	bcf	75,2	;volatile
  1442                           
  1443                           ;main.c: 231: WDTEN = 0;
  1444  047D  13C1               	bcf	65,7	;volatile
  1445                           
  1446                           ;main.c: 234: IOCA = 0x0E;
  1447  047E  300E               	movlw	14
  1448  047F  0087               	movwf	7	;volatile
  1449                           
  1450                           ;main.c: 235: IOCB = 0x40;
  1451  0480  3040               	movlw	64
  1452  0481  0089               	movwf	9	;volatile
  1453                           
  1454                           ;main.c: 237: unsigned char temp;
  1455                           ;main.c: 238: temp = PORTA;
  1456  0482  0805               	movf	5,w	;volatile
  1457                           
  1458                           ;main.c: 239: temp = PORTB;
  1459  0483  0806               	movf	6,w	;volatile
  1460                           
  1461                           ;main.c: 242: PAIF = 0;
  1462  0484  100F               	bcf	15,0	;volatile
  1463                           
  1464                           ;main.c: 243: PBIF = 0;
  1465  0485  120E               	bcf	14,4	;volatile
  1466                           
  1467                           ;main.c: 244: PAIE = 1;
  1468  0486  148F               	bsf	15,1	;volatile
  1469                           
  1470                           ;main.c: 245: PBIE = 1;
  1471  0487  148E               	bsf	14,1	;volatile
  1472  0488  0064               	clrwdt	;# 
  1473  0489  0000               	nop	;# 
  1474  048A  0063               	sleep	;# 
  1475  048B  0000               	nop	;# 
  1476                           
  1477                           ;main.c: 254: WDTEN = 1;
  1478  048C  1283               	bcf	3,5	;RP0=0, select bank0
  1479  048D  17C1               	bsf	65,7	;volatile
  1480                           
  1481                           ;main.c: 255: ADEN = 1;
  1482  048E  145A               	bsf	90,0	;volatile
  1483                           
  1484                           ;main.c: 257: if(((PORTB & 0x40) ? 1 : 0))
  1485  048F  1F06               	btfss	6,6	;volatile
  1486  0490  2CA1               	goto	l5346
  1487  0491  30B8               	movlw	184
  1488                           
  1489                           ;main.c: 258: {
  1490                           ;main.c: 260: DIY_Flag2.OnrBit.b2 = 1;
  1491  0492  1521               	bsf	_DIY_Flag2,2
  1492                           
  1493                           ;main.c: 261: g_slave_alive_ms = 3000;
  1494  0493  1683               	bsf	3,5	;RP0=1, select bank1
  1495  0494  0098               	movwf	_g_slave_alive_ms^(0+128)
  1496  0495  300B               	movlw	11
  1497  0496  0099               	movwf	(_g_slave_alive_ms^(0+128)+1)
  1498  0497                     l1019:	
  1499                           
  1500                           ;main.c: 264: while(((PORTB & 0x40) ? 1 : 0))
  1501  0497  1283               	bcf	3,5	;RP0=0, select bank0
  1502  0498  1F06               	btfss	6,6	;volatile
  1503  0499  2C9C               	goto	l5342
  1504  049A  0064               	clrwdt	;# 
  1505  049B  2C97               	goto	l1019
  1506  049C                     l5342:	
  1507                           
  1508                           ;main.c: 269: }
  1509                           ;main.c: 272: kcomm_cycle = 195;
  1510  049C  30C3               	movlw	195
  1511  049D  1683               	bsf	3,5	;RP0=1, select bank1
  1512  049E  00B7               	movwf	_kcomm_cycle^(0+128)
  1513                           
  1514                           ;main.c: 273: kcomm_wakeup = 0;
  1515  049F  1283               	bcf	3,5	;RP0=0, select bank0
  1516  04A0  01A4               	clrf	_kcomm_wakeup
  1517  04A1                     l5346:	
  1518                           
  1519                           ;main.c: 274: }
  1520                           ;main.c: 276: temp = PORTA;
  1521  04A1  0805               	movf	5,w	;volatile
  1522                           
  1523                           ;main.c: 277: temp = PORTB;
  1524  04A2  0806               	movf	6,w	;volatile
  1525                           
  1526                           ;main.c: 279: PAIF = 0;
  1527  04A3  100F               	bcf	15,0	;volatile
  1528                           
  1529                           ;main.c: 280: PBIF = 0;
  1530  04A4  120E               	bcf	14,4	;volatile
  1531                           
  1532                           ;main.c: 281: PAIE = 0;
  1533  04A5  108F               	bcf	15,1	;volatile
  1534                           
  1535                           ;main.c: 282: PBIE = 0;
  1536  04A6  108E               	bcf	14,1	;volatile
  1537                           
  1538                           ;main.c: 284: if(!PORTA2 || !PORTA1)
  1539  04A7  1905               	btfsc	5,2	;volatile
  1540  04A8  1C85               	btfss	5,1	;volatile
  1541                           
  1542                           ;main.c: 285: {
  1543                           ;main.c: 286: DIY_Flag1.OnrBit.b5 = 1;
  1544  04A9  16A2               	bsf	_DIY_Flag1,5
  1545                           
  1546                           ;main.c: 287: }
  1547                           ;main.c: 288: inital();
  1548  04AA  27C2               	fcall	_inital
  1549                           
  1550                           ;main.c: 289: sysinitial();
  1551  04AB  2619               	fcall	_sysinitial
  1552                           
  1553                           ;main.c: 290: ADC_Init();
  1554  04AC  27DD               	fcall	_ADC_Init
  1555                           
  1556                           ;main.c: 291: BOREN = 1;
  1557  04AD  154B               	bsf	75,2	;volatile
  1558                           
  1559                           ;main.c: 292: Sleep_Time = 0;
  1560  04AE  1683               	bsf	3,5	;RP0=1, select bank1
  1561  04AF  0196               	clrf	Sleep_Func@Sleep_Time^(0+128)
  1562  04B0  0197               	clrf	(Sleep_Func@Sleep_Time+1)^(0+128)
  1563                           
  1564                           ;main.c: 293: DIY_Flag1.OnrBit.b0 = 0;
  1565  04B1  1283               	bcf	3,5	;RP0=0, select bank0
  1566  04B2  1022               	bcf	_DIY_Flag1,0
  1567  04B3  0008               	return
  1568  04B4                     __end_of_Sleep_Func:	
  1569  04B4                     PL4:	
  1570  04B4  00C6               	movwf	70	;volatile
  1571  04B5  30F1               	movlw	241
  1572  04B6  00C3               	movwf	67	;volatile
  1573  04B7  30FF               	movlw	255
  1574  04B8  008D               	movwf	13	;volatile
  1575  04B9  00C2               	movwf	66	;volatile
  1576  04BA  30BF               	movlw	191
  1577  04BB  008B               	movwf	11	;volatile
  1578  04BC  0008               	return
  1579  04BD                     __end_ofPL4:	
  1580                           
  1581                           	psect	text5
  1582  0619                     __ptext5:	
  1583  0619                     _sysinitial:	
  1584 ;; *************** function _sysinitial *****************
  1585 ;; Defined at:
  1586 ;;		line 40 in file "inital.c"
  1587 ;; Parameters:    Size  Location     Type
  1588 ;;		None
  1589 ;; Auto vars:     Size  Location     Type
  1590 ;;		None
  1591 ;; Return value:  Size  Location     Type
  1592 ;;                  1    wreg      void 
  1593 ;; Registers used:
  1594 ;;		wreg, status,2
  1595 ;; Tracked objects:
  1596 ;;		On entry : 100/0
  1597 ;;		On exit  : 100/0
  1598 ;;		Unchanged: 0/0
  1599 ;; Data sizes:     COMMON   BANK0   BANK1
  1600 ;;      Params:         0       0       0
  1601 ;;      Locals:         0       0      12
  1602 ;;      Temps:          0       0       0
  1603 ;;      Totals:         0       0      12
  1604 ;;Total ram usage:       12 bytes
  1605 ;; Hardware stack levels used:    1
  1606 ;; Hardware stack levels required when called:    3
  1607 ;; This function calls:
  1608 ;;		Nothing
  1609 ;; This function is called by:
  1610 ;;		_Sleep_Func
  1611 ;;		_main
  1612 ;; This function uses a non-reentrant model
  1613 ;;
  1614                           ;psect for function _sysinitial
  1615                           
  1616                           
  1617                           ;inital.c: 43: INTECON = 0x00;
  1618                           ;incstack = 0
  1619                           ; Regs used in _sysinitial: [wreg+status,2]
  1620  0619  018E               	clrf	14	;volatile
  1621                           
  1622                           ;inital.c: 45: OPTION = 0X00;
  1623  061A  01C1               	clrf	65	;volatile
  1624                           
  1625                           ;inital.c: 57: INTECON = ( 1 ? (INTECON|(0x01<<0)) : (INTECON&(0xff-(0x01<<0))) );
  1626  061B  080E               	movf	14,w	;volatile
  1627  061C  1683               	bsf	3,5	;RP0=1, select bank1
  1628  061D  00BC               	movwf	_sysinitial$240^(0+128)
  1629  061E  01BD               	clrf	(_sysinitial$240+1)^(0+128)
  1630  061F  143C               	bsf	_sysinitial$240^(0+128),0
  1631                           
  1632                           ;inital.c: 58: INTECON = ( 0 ? (INTECON|(0x01<<3)) : (INTECON&(0xff-(0x01<<3))) );
  1633  0620  083C               	movf	_sysinitial$240^(0+128),w
  1634  0621  1283               	bcf	3,5	;RP0=0, select bank0
  1635  0622  008E               	movwf	14	;volatile
  1636  0623  080E               	movf	14,w	;volatile
  1637  0624  39F7               	andlw	247
  1638  0625  1683               	bsf	3,5	;RP0=1, select bank1
  1639  0626  00BE               	movwf	_sysinitial$241^(0+128)
  1640  0627  01BF               	clrf	(_sysinitial$241+1)^(0+128)
  1641  0628  1283               	bcf	3,5	;RP0=0, select bank0
  1642  0629  008E               	movwf	14	;volatile
  1643                           
  1644                           ;inital.c: 59: INTECON = ( 1 ? (INTECON|(0x01<<7)) : (INTECON&(0xff-(0x01<<7))) );
  1645  062A  080E               	movf	14,w	;volatile
  1646  062B  1683               	bsf	3,5	;RP0=1, select bank1
  1647  062C  00C0               	movwf	_sysinitial$242^(0+128)
  1648  062D  01C1               	clrf	(_sysinitial$242+1)^(0+128)
  1649  062E  17C0               	bsf	_sysinitial$242^(0+128),7
  1650  062F  0840               	movf	_sysinitial$242^(0+128),w
  1651  0630  1283               	bcf	3,5	;RP0=0, select bank0
  1652  0631  008E               	movwf	14	;volatile
  1653                           
  1654                           ;inital.c: 61: T1CON = ( 1 ? (T1CON|(0x01<<5)) : (T1CON&(0xff-(0x01<<5))) );
  1655  0632  084C               	movf	76,w	;volatile
  1656  0633  1683               	bsf	3,5	;RP0=1, select bank1
  1657  0634  00C2               	movwf	_sysinitial$243^(0+128)
  1658  0635  01C3               	clrf	(_sysinitial$243+1)^(0+128)
  1659  0636  16C2               	bsf	_sysinitial$243^(0+128),5
  1660                           
  1661                           ;inital.c: 63: OPTION = ( 0 ? (OPTION|(0x01<<5)) : (OPTION&(0xff-(0x01<<5))) );
  1662  0637  0842               	movf	_sysinitial$243^(0+128),w
  1663  0638  1283               	bcf	3,5	;RP0=0, select bank0
  1664  0639  00CC               	movwf	76	;volatile
  1665  063A  0841               	movf	65,w	;volatile
  1666  063B  39DF               	andlw	223
  1667  063C  1683               	bsf	3,5	;RP0=1, select bank1
  1668  063D  00C4               	movwf	_sysinitial$244^(0+128)
  1669  063E  01C5               	clrf	(_sysinitial$244+1)^(0+128)
  1670                           
  1671                           ;inital.c: 64: OPTION = ( 0 ? (OPTION|(0x01<<4)) : (OPTION&(0xff-(0x01<<4))) );
  1672  063F  1283               	bcf	3,5	;RP0=0, select bank0
  1673  0640  00C1               	movwf	65	;volatile
  1674  0641  0841               	movf	65,w	;volatile
  1675  0642  39EF               	andlw	239
  1676  0643  1683               	bsf	3,5	;RP0=1, select bank1
  1677  0644  00C6               	movwf	_sysinitial$245^(0+128)
  1678  0645  01C7               	clrf	(_sysinitial$245+1)^(0+128)
  1679  0646  1283               	bcf	3,5	;RP0=0, select bank0
  1680  0647  00C1               	movwf	65	;volatile
  1681  0648  0008               	return
  1682  0649                     __end_of_sysinitial:	
  1683                           
  1684                           	psect	text6
  1685  07C2                     __ptext6:	
  1686  07C2                     _inital:	
  1687 ;; *************** function _inital *****************
  1688 ;; Defined at:
  1689 ;;		line 13 in file "inital.c"
  1690 ;; Parameters:    Size  Location     Type
  1691 ;;		None
  1692 ;; Auto vars:     Size  Location     Type
  1693 ;;		None
  1694 ;; Return value:  Size  Location     Type
  1695 ;;                  1    wreg      void 
  1696 ;; Registers used:
  1697 ;;		wreg, status,2
  1698 ;; Tracked objects:
  1699 ;;		On entry : 100/0
  1700 ;;		On exit  : 100/0
  1701 ;;		Unchanged: 0/0
  1702 ;; Data sizes:     COMMON   BANK0   BANK1
  1703 ;;      Params:         0       0       0
  1704 ;;      Locals:         0       0       0
  1705 ;;      Temps:          0       0       0
  1706 ;;      Totals:         0       0       0
  1707 ;;Total ram usage:        0 bytes
  1708 ;; Hardware stack levels used:    1
  1709 ;; Hardware stack levels required when called:    3
  1710 ;; This function calls:
  1711 ;;		Nothing
  1712 ;; This function is called by:
  1713 ;;		_Sleep_Func
  1714 ;;		_main
  1715 ;; This function uses a non-reentrant model
  1716 ;;
  1717                           ;psect for function _inital
  1718                           
  1719                           
  1720                           ;inital.c: 15: ANSELL=0X00;
  1721                           ;incstack = 0
  1722                           ; Regs used in _inital: [wreg+status,2]
  1723  07C2  01D6               	clrf	86	;volatile
  1724                           
  1725                           ;inital.c: 16: ANSELH=0X00;
  1726  07C3  01D7               	clrf	87	;volatile
  1727                           
  1728                           ;inital.c: 18: PORTA=0XD0;
  1729  07C4  30D0               	movlw	208
  1730  07C5  0085               	movwf	5	;volatile
  1731                           
  1732                           ;inital.c: 19: PORTB=0X03;
  1733  07C6  3003               	movlw	3
  1734  07C7  0086               	movwf	6	;volatile
  1735                           
  1736                           ;inital.c: 21: TRISA=0X0E;
  1737  07C8  300E               	movlw	14
  1738  07C9  00C5               	movwf	69	;volatile
  1739                           
  1740                           ;inital.c: 22: TRISB=0X08;
  1741  07CA  3008               	movlw	8
  1742                           
  1743                           ;inital.c: 24: PHCON1=0XF1;
  1744                           ;inital.c: 25: PHCON=0XFF;
  1745                           ;inital.c: 27: PDCON1=0xFF;
  1746                           ;inital.c: 28: PDCON=0xBF;
  1747  07CB  24B4               	fcall	PL4	;call to abstracted procedure
  1748                           
  1749                           ;inital.c: 31: IOCA=0X00;
  1750  07CC  0187               	clrf	7	;volatile
  1751                           
  1752                           ;inital.c: 32: IOCB=0X00;
  1753  07CD  0189               	clrf	9	;volatile
  1754                           
  1755                           ;inital.c: 34: PBIE=0;
  1756  07CE  108E               	bcf	14,1	;volatile
  1757  07CF  0008               	return
  1758  07D0                     __end_of_inital:	
  1759                           
  1760                           	psect	text7
  1761  07DD                     __ptext7:	
  1762  07DD                     _ADC_Init:	
  1763 ;; *************** function _ADC_Init *****************
  1764 ;; Defined at:
  1765 ;;		line 301 in file "main.c"
  1766 ;; Parameters:    Size  Location     Type
  1767 ;;		None
  1768 ;; Auto vars:     Size  Location     Type
  1769 ;;		None
  1770 ;; Return value:  Size  Location     Type
  1771 ;;                  1    wreg      void 
  1772 ;; Registers used:
  1773 ;;		wreg, status,2, status,0, pclath, cstack
  1774 ;; Tracked objects:
  1775 ;;		On entry : 100/0
  1776 ;;		On exit  : 100/0
  1777 ;;		Unchanged: 0/0
  1778 ;; Data sizes:     COMMON   BANK0   BANK1
  1779 ;;      Params:         0       0       0
  1780 ;;      Locals:         0       0       0
  1781 ;;      Temps:          0       0       0
  1782 ;;      Totals:         0       0       0
  1783 ;;Total ram usage:        0 bytes
  1784 ;; Hardware stack levels used:    1
  1785 ;; Hardware stack levels required when called:    4
  1786 ;; This function calls:
  1787 ;;		_delay_us
  1788 ;; This function is called by:
  1789 ;;		_Sleep_Func
  1790 ;;		_main
  1791 ;; This function uses a non-reentrant model
  1792 ;;
  1793                           ;psect for function _ADC_Init
  1794                           
  1795                           
  1796                           ;main.c: 303: ANSELL=0X20;
  1797                           ;incstack = 0
  1798                           ; Regs used in _ADC_Init: [wreg+status,2+status,0+pclath+cstack]
  1799  07DD  3020               	movlw	32
  1800  07DE  00D6               	movwf	86	;volatile
  1801                           
  1802                           ;main.c: 304: ANSELH=0X00;
  1803  07DF  01D7               	clrf	87	;volatile
  1804                           
  1805                           ;main.c: 305: ADCON0=0X15;
  1806  07E0  3015               	movlw	21
  1807  07E1  00DA               	movwf	90	;volatile
  1808                           
  1809                           ;main.c: 306: adcon1_val = 0X08;
  1810  07E2  3008               	movlw	8
  1811  07E3  00A3               	movwf	_adcon1_val
  1812                           
  1813                           ;main.c: 307: ADCON1 = adcon1_val;
  1814  07E4  00DB               	movwf	91	;volatile
  1815                           
  1816                           ;main.c: 308: ADEN = 1;
  1817  07E5  145A               	bsf	90,0	;volatile
  1818                           
  1819                           ;main.c: 309: delay_us(100);
  1820  07E6  3064               	movlw	100
  1821  07E7  00AF               	movwf	delay_us@us
  1822  07E8  01B0               	clrf	delay_us@us+1
  1823  07E9  2F24               	ljmp	l3640
  1824  07EA                     __end_of_ADC_Init:	
  1825                           
  1826                           	psect	text8
  1827  0724                     __ptext8:	
  1828  0724                     _delay_us:	
  1829 ;; *************** function _delay_us *****************
  1830 ;; Defined at:
  1831 ;;		line 175 in file "main.c"
  1832 ;; Parameters:    Size  Location     Type
  1833 ;;  us              2    7[BANK0 ] unsigned int 
  1834 ;; Auto vars:     Size  Location     Type
  1835 ;;  i               2    9[BANK0 ] unsigned int 
  1836 ;; Return value:  Size  Location     Type
  1837 ;;                  1    wreg      void 
  1838 ;; Registers used:
  1839 ;;		wreg, status,2, status,0
  1840 ;; Tracked objects:
  1841 ;;		On entry : 100/0
  1842 ;;		On exit  : 100/0
  1843 ;;		Unchanged: 0/0
  1844 ;; Data sizes:     COMMON   BANK0   BANK1
  1845 ;;      Params:         0       2       0
  1846 ;;      Locals:         0       2       0
  1847 ;;      Temps:          0       0       0
  1848 ;;      Totals:         0       4       0
  1849 ;;Total ram usage:        4 bytes
  1850 ;; Hardware stack levels used:    1
  1851 ;; Hardware stack levels required when called:    3
  1852 ;; This function calls:
  1853 ;;		Nothing
  1854 ;; This function is called by:
  1855 ;;		_Sleep_Func
  1856 ;;		_ADC_Init
  1857 ;; This function uses a non-reentrant model
  1858 ;;
  1859                           ;psect for function _delay_us
  1860                           
  1861  0724                     l3640:	
  1862                           
  1863                           ;main.c: 177: unsigned int i;
  1864                           ;main.c: 179: while(us--)
  1865                           ;incstack = 0
  1866                           ; Regs used in _delay_us: [wreg+status,2+status,0]
  1867  0724  3001               	movlw	1
  1868  0725  02AF               	subwf	delay_us@us,f
  1869  0726  3000               	movlw	0
  1870  0727  1C03               	btfss	3,0
  1871  0728  03B0               	decf	delay_us@us+1,f
  1872  0729  02B0               	subwf	delay_us@us+1,f
  1873  072A  0F2F               	incfsz	delay_us@us,w
  1874  072B  2F2F               	goto	l3630
  1875  072C  0A30               	incf	delay_us@us+1,w
  1876  072D  1903               	btfsc	3,2
  1877  072E  0008               	return
  1878  072F                     l3630:	
  1879                           
  1880                           ;main.c: 180: {
  1881                           ;main.c: 182: for(i = 0; i < 4; i++)
  1882  072F  01B1               	clrf	delay_us@i
  1883  0730  01B2               	clrf	delay_us@i+1
  1884  0731                     l1006:	
  1885  0731  0000               	nop	;# 
  1886  0732  1283               	bcf	3,5	;RP0=0, select bank0
  1887  0733  0AB1               	incf	delay_us@i,f
  1888  0734  1903               	btfsc	3,2
  1889  0735  0AB2               	incf	delay_us@i+1,f
  1890  0736  3000               	movlw	0
  1891  0737  0232               	subwf	delay_us@i+1,w
  1892  0738  3004               	movlw	4
  1893  0739  1903               	btfsc	3,2
  1894  073A  0231               	subwf	delay_us@i,w
  1895  073B  1803               	btfsc	3,0
  1896  073C  2F24               	goto	l3640
  1897  073D  2F31               	goto	l1006
  1898  073E                     __end_of_delay_us:	
  1899                           
  1900                           	psect	text9
  1901  06A1                     __ptext9:	
  1902  06A1                     _SW_Func:	
  1903 ;; *************** function _SW_Func *****************
  1904 ;; Defined at:
  1905 ;;		line 737 in file "main.c"
  1906 ;; Parameters:    Size  Location     Type
  1907 ;;		None
  1908 ;; Auto vars:     Size  Location     Type
  1909 ;;		None
  1910 ;; Return value:  Size  Location     Type
  1911 ;;                  1    wreg      void 
  1912 ;; Registers used:
  1913 ;;		wreg, status,2, status,0
  1914 ;; Tracked objects:
  1915 ;;		On entry : 0/100
  1916 ;;		On exit  : 0/0
  1917 ;;		Unchanged: 0/0
  1918 ;; Data sizes:     COMMON   BANK0   BANK1
  1919 ;;      Params:         0       0       0
  1920 ;;      Locals:         0       0       0
  1921 ;;      Temps:          0       0       0
  1922 ;;      Totals:         0       0       0
  1923 ;;Total ram usage:        0 bytes
  1924 ;; Hardware stack levels used:    1
  1925 ;; Hardware stack levels required when called:    3
  1926 ;; This function calls:
  1927 ;;		Nothing
  1928 ;; This function is called by:
  1929 ;;		_main
  1930 ;; This function uses a non-reentrant model
  1931 ;;
  1932                           ;psect for function _SW_Func
  1933                           
  1934                           
  1935                           ;main.c: 739: static unsigned char sw_time1 = 0;
  1936                           ;main.c: 740: static unsigned char sw_time2 = 0;
  1937                           ;main.c: 742: if(PORTA3)
  1938                           ;incstack = 0
  1939                           ; Regs used in _SW_Func: [wreg+status,2+status,0]
  1940  06A1  1283               	bcf	3,5	;RP0=0, select bank0
  1941  06A2  1D85               	btfss	5,3	;volatile
  1942  06A3  2EBA               	goto	l4386
  1943  06A4  3014               	movlw	20
  1944                           
  1945                           ;main.c: 743: {
  1946                           ;main.c: 745: sw_time2 = 0;
  1947  06A5  1683               	bsf	3,5	;RP0=1, select bank1
  1948  06A6  01AA               	clrf	SW_Func@sw_time2^(0+128)
  1949                           
  1950                           ;main.c: 746: sw_time1 ++;
  1951  06A7  0AAB               	incf	SW_Func@sw_time1^(0+128),f
  1952                           
  1953                           ;main.c: 747: if(sw_time1 >= 20)
  1954  06A8  022B               	subwf	SW_Func@sw_time1^(0+128),w
  1955  06A9  1C03               	btfss	3,0
  1956  06AA  0008               	return
  1957                           
  1958                           ;main.c: 748: {
  1959                           ;main.c: 749: sw_time1 = 0;
  1960  06AB  01AB               	clrf	SW_Func@sw_time1^(0+128)
  1961                           
  1962                           ;main.c: 750: if(DIY_Flag2.OnrBit.b0)
  1963  06AC  1283               	bcf	3,5	;RP0=0, select bank0
  1964  06AD  1C21               	btfss	_DIY_Flag2,0
  1965  06AE  2EB3               	goto	l4382
  1966                           
  1967                           ;main.c: 751: {
  1968                           ;main.c: 752: DIY_Flag1.OnrBit.b7 = 0;
  1969  06AF  13A2               	bcf	_DIY_Flag1,7
  1970                           
  1971                           ;main.c: 753: g_offshow_ms = 0;
  1972  06B0  1683               	bsf	3,5	;RP0=1, select bank1
  1973  06B1  019C               	clrf	_g_offshow_ms^(0+128)
  1974  06B2  019D               	clrf	(_g_offshow_ms+1)^(0+128)
  1975  06B3                     l4382:	
  1976                           
  1977                           ;main.c: 754: }
  1978                           ;main.c: 755: DIY_Flag2.OnrBit.b0 = 0;
  1979  06B3  1283               	bcf	3,5	;RP0=0, select bank0
  1980  06B4  1021               	bcf	_DIY_Flag2,0
  1981                           
  1982                           ;main.c: 756: DIY_Flag1.OnrBit.b5 = 0;
  1983  06B5  12A2               	bcf	_DIY_Flag1,5
  1984                           
  1985                           ;main.c: 758: g_pwr_delay_ms = 0;
  1986  06B6  1683               	bsf	3,5	;RP0=1, select bank1
  1987  06B7  019A               	clrf	_g_pwr_delay_ms^(0+128)
  1988  06B8  019B               	clrf	(_g_pwr_delay_ms+1)^(0+128)
  1989  06B9  0008               	return
  1990  06BA                     l4386:	
  1991  06BA  3014               	movlw	20
  1992                           
  1993                           ;main.c: 762: else
  1994                           ;main.c: 763: {
  1995                           ;main.c: 765: sw_time1 = 0;
  1996  06BB  1683               	bsf	3,5	;RP0=1, select bank1
  1997  06BC  01AB               	clrf	SW_Func@sw_time1^(0+128)
  1998                           
  1999                           ;main.c: 766: sw_time2 ++;
  2000  06BD  0AAA               	incf	SW_Func@sw_time2^(0+128),f
  2001                           
  2002                           ;main.c: 767: if(sw_time2 >= 20)
  2003  06BE  022A               	subwf	SW_Func@sw_time2^(0+128),w
  2004  06BF  1C03               	btfss	3,0
  2005  06C0  0008               	return
  2006                           
  2007                           ;main.c: 768: {
  2008                           ;main.c: 769: sw_time2 = 0;
  2009  06C1  01AA               	clrf	SW_Func@sw_time2^(0+128)
  2010                           
  2011                           ;main.c: 770: DIY_Flag2.OnrBit.b0 = 1;
  2012  06C2  1283               	bcf	3,5	;RP0=0, select bank0
  2013  06C3  1421               	bsf	_DIY_Flag2,0
  2014                           
  2015                           ;main.c: 771: DIY_Flag1.OnrBit.b5 = 0;
  2016  06C4  12A2               	bcf	_DIY_Flag1,5
  2017  06C5  0008               	return
  2018  06C6                     __end_of_SW_Func:	
  2019                           
  2020                           	psect	text10
  2021  0394                     __ptext10:	
  2022  0394                     _LedMode_Func:	
  2023 ;; *************** function _LedMode_Func *****************
  2024 ;; Defined at:
  2025 ;;		line 336 in file "main.c"
  2026 ;; Parameters:    Size  Location     Type
  2027 ;;		None
  2028 ;; Auto vars:     Size  Location     Type
  2029 ;;		None
  2030 ;; Return value:  Size  Location     Type
  2031 ;;                  1    wreg      void 
  2032 ;; Registers used:
  2033 ;;		wreg, status,2, status,0, pclath, cstack
  2034 ;; Tracked objects:
  2035 ;;		On entry : 100/0
  2036 ;;		On exit  : 0/0
  2037 ;;		Unchanged: 0/0
  2038 ;; Data sizes:     COMMON   BANK0   BANK1
  2039 ;;      Params:         0       0       0
  2040 ;;      Locals:         0       0       0
  2041 ;;      Temps:          0       0       0
  2042 ;;      Totals:         0       0       0
  2043 ;;Total ram usage:        0 bytes
  2044 ;; Hardware stack levels used:    1
  2045 ;; Hardware stack levels required when called:    4
  2046 ;; This function calls:
  2047 ;;		_show_gear_led
  2048 ;; This function is called by:
  2049 ;;		_main
  2050 ;; This function uses a non-reentrant model
  2051 ;;
  2052                           ;psect for function _LedMode_Func
  2053                           
  2054                           
  2055                           ;main.c: 339: static unsigned char chg_pwm_cnt = 0;
  2056                           ;main.c: 340: static unsigned char breath_duty = 0;
  2057                           ;main.c: 341: static unsigned char breath_dir = 1;
  2058                           ;main.c: 342: static unsigned char breath_cnt = 0;
  2059                           ;main.c: 345: if(g_battery_empty)
  2060                           ;incstack = 0
  2061                           ; Regs used in _LedMode_Func: [wreg+status,2+status,0+pclath+cstack]
  2062  0394  081E               	movf	_g_battery_empty,w
  2063  0395  1903               	btfsc	3,2
  2064  0396  2B99               	goto	l1045
  2065  0397                     l5372:	
  2066                           
  2067                           ;main.c: 346: {
  2068                           ;main.c: 347: (PORTB1 = 1); (PORTB0 = 1); (PORTA7 = 1); (PORTA6 = 1); (PORTA4 = 1);
  2069  0397  22D0               	fcall	PL2	;call to abstracted procedure
  2070                           
  2071                           ;main.c: 348: return;
  2072  0398  0008               	return
  2073  0399                     l1045:	
  2074                           
  2075                           ;main.c: 349: }
  2076                           ;main.c: 352: if((DIY_Flag2.OnrBit.b2 || DIY_Flag2.OnrBit.b3) && !DIY_Flag2.OnrBit.b0)
  2077  0399  1921               	btfsc	_DIY_Flag2,2
  2078  039A  2B9D               	goto	l1049
  2079  039B  1DA1               	btfss	_DIY_Flag2,3
  2080  039C  2C0F               	goto	l1047
  2081  039D                     l1049:	
  2082  039D  1821               	btfsc	_DIY_Flag2,0
  2083  039E  2C0F               	goto	l1047
  2084  039F  3032               	movlw	50
  2085                           
  2086                           ;main.c: 353: {
  2087                           ;main.c: 355: breath_cnt++;
  2088  03A0  0A96               	incf	LedMode_Func@breath_cnt,f
  2089                           
  2090                           ;main.c: 356: if(breath_cnt >= 50)
  2091  03A1  0216               	subwf	LedMode_Func@breath_cnt,w
  2092  03A2  1C03               	btfss	3,0
  2093  03A3  2BB7               	goto	l5394
  2094                           
  2095                           ;main.c: 357: {
  2096                           ;main.c: 358: breath_cnt = 0;
  2097  03A4  0196               	clrf	LedMode_Func@breath_cnt
  2098                           
  2099                           ;main.c: 359: if(breath_dir)
  2100  03A5  0836               	movf	LedMode_Func@breath_dir,w
  2101  03A6  1903               	btfsc	3,2
  2102  03A7  2BB0               	goto	l5390
  2103                           
  2104                           ;main.c: 360: {
  2105                           ;main.c: 361: if(breath_duty < 20) breath_duty++;
  2106  03A8  3014               	movlw	20
  2107  03A9  0217               	subwf	LedMode_Func@breath_duty,w
  2108  03AA  1803               	btfsc	3,0
  2109  03AB  2BAE               	goto	l5388
  2110  03AC  0A97               	incf	LedMode_Func@breath_duty,f
  2111  03AD  2BB7               	goto	l5394
  2112  03AE                     l5388:	
  2113                           
  2114                           ;main.c: 362: else breath_dir = 0;
  2115  03AE  01B6               	clrf	LedMode_Func@breath_dir
  2116  03AF  2BB7               	goto	l5394
  2117  03B0                     l5390:	
  2118                           
  2119                           ;main.c: 364: else
  2120                           ;main.c: 365: {
  2121                           ;main.c: 366: if(breath_duty > 0) breath_duty--;
  2122  03B0  0817               	movf	LedMode_Func@breath_duty,w
  2123  03B1  1903               	btfsc	3,2
  2124  03B2  2BB5               	goto	l1055
  2125  03B3  0397               	decf	LedMode_Func@breath_duty,f
  2126  03B4  2BB7               	goto	l5394
  2127  03B5                     l1055:	
  2128                           
  2129                           ;main.c: 367: else breath_dir = 1;
  2130  03B5  01B6               	clrf	LedMode_Func@breath_dir
  2131  03B6  0AB6               	incf	LedMode_Func@breath_dir,f
  2132  03B7                     l5394:	
  2133  03B7  3014               	movlw	20
  2134                           
  2135                           ;main.c: 368: }
  2136                           ;main.c: 369: }
  2137                           ;main.c: 372: chg_pwm_cnt++;
  2138  03B8  0A98               	incf	LedMode_Func@chg_pwm_cnt,f
  2139                           
  2140                           ;main.c: 373: if(chg_pwm_cnt >= 20)
  2141  03B9  0218               	subwf	LedMode_Func@chg_pwm_cnt,w
  2142  03BA  1803               	btfsc	3,0
  2143                           
  2144                           ;main.c: 374: chg_pwm_cnt = 0;
  2145  03BB  0198               	clrf	LedMode_Func@chg_pwm_cnt
  2146                           
  2147                           ;main.c: 376: if(DIY_Flag2.OnrBit.b3)
  2148  03BC  1DA1               	btfss	_DIY_Flag2,3
  2149  03BD  2BC4               	goto	l5410
  2150                           
  2151                           ;main.c: 377: {
  2152                           ;main.c: 379: (PORTB1 = 0); (PORTB0 = 0); (PORTA7 = 0); (PORTA6 = 0); (PORTA4 = 0);
  2153  03BE  25AB               	fcall	PL6	;call to abstracted procedure
  2154                           
  2155                           ;main.c: 380: breath_duty = 20;
  2156  03BF  3014               	movlw	20
  2157  03C0  0097               	movwf	LedMode_Func@breath_duty
  2158                           
  2159                           ;main.c: 381: breath_dir = 0;
  2160  03C1  01B6               	clrf	LedMode_Func@breath_dir
  2161                           
  2162                           ;main.c: 382: breath_cnt = 0;
  2163  03C2  0196               	clrf	LedMode_Func@breath_cnt
  2164                           
  2165                           ;main.c: 383: }
  2166  03C3  0008               	return
  2167  03C4                     l5410:	
  2168                           
  2169                           ;main.c: 384: else
  2170                           ;main.c: 385: {
  2171                           ;main.c: 388: if(level >= 2) { (PORTA4 = 0); }
  2172  03C4  3002               	movlw	2
  2173  03C5  0219               	subwf	_level,w
  2174  03C6  1C03               	btfss	3,0
  2175  03C7  2BCA               	goto	l5414
  2176  03C8                     l5412:	
  2177  03C8  1205               	bcf	5,4	;volatile
  2178  03C9  2BD1               	goto	l5420
  2179  03CA                     l5414:	
  2180                           
  2181                           ;main.c: 389: else if(level == 1) { if(chg_pwm_cnt < breath_duty) (PORTA4 = 0); else (PO
      +                          RTA4 = 1); }
  2182  03CA  0B19               	decfsz	_level,w
  2183  03CB  2BD0               	goto	l1063
  2184  03CC  0817               	movf	LedMode_Func@breath_duty,w
  2185  03CD  0218               	subwf	LedMode_Func@chg_pwm_cnt,w
  2186  03CE  1C03               	btfss	3,0
  2187  03CF  2BC8               	goto	l5412
  2188  03D0                     l1063:	
  2189  03D0  1605               	bsf	5,4	;volatile
  2190  03D1                     l5420:	
  2191                           
  2192                           ;main.c: 393: if(level >= 3) { (PORTA6 = 0); }
  2193  03D1  3003               	movlw	3
  2194  03D2  0219               	subwf	_level,w
  2195  03D3  1C03               	btfss	3,0
  2196  03D4  2BD7               	goto	l5424
  2197  03D5                     l5422:	
  2198  03D5  1305               	bcf	5,6	;volatile
  2199  03D6  2BE0               	goto	l5430
  2200  03D7                     l5424:	
  2201                           
  2202                           ;main.c: 394: else if(level == 2) { if(chg_pwm_cnt < breath_duty) (PORTA6 = 0); else (PO
      +                          RTA6 = 1); }
  2203  03D7  3002               	movlw	2
  2204  03D8  0619               	xorwf	_level,w
  2205  03D9  1D03               	btfss	3,2
  2206  03DA  2BDF               	goto	l1069
  2207  03DB  0817               	movf	LedMode_Func@breath_duty,w
  2208  03DC  0218               	subwf	LedMode_Func@chg_pwm_cnt,w
  2209  03DD  1C03               	btfss	3,0
  2210  03DE  2BD5               	goto	l5422
  2211  03DF                     l1069:	
  2212  03DF  1705               	bsf	5,6	;volatile
  2213  03E0                     l5430:	
  2214                           
  2215                           ;main.c: 398: if(level >= 4) { (PORTA7 = 0); }
  2216  03E0  3004               	movlw	4
  2217  03E1  0219               	subwf	_level,w
  2218  03E2  1C03               	btfss	3,0
  2219  03E3  2BE6               	goto	l5434
  2220  03E4                     l5432:	
  2221  03E4  1385               	bcf	5,7	;volatile
  2222  03E5  2BEF               	goto	l5440
  2223  03E6                     l5434:	
  2224                           
  2225                           ;main.c: 399: else if(level == 3) { if(chg_pwm_cnt < breath_duty) (PORTA7 = 0); else (PO
      +                          RTA7 = 1); }
  2226  03E6  3003               	movlw	3
  2227  03E7  0619               	xorwf	_level,w
  2228  03E8  1D03               	btfss	3,2
  2229  03E9  2BEE               	goto	l1075
  2230  03EA  0817               	movf	LedMode_Func@breath_duty,w
  2231  03EB  0218               	subwf	LedMode_Func@chg_pwm_cnt,w
  2232  03EC  1C03               	btfss	3,0
  2233  03ED  2BE4               	goto	l5432
  2234  03EE                     l1075:	
  2235  03EE  1785               	bsf	5,7	;volatile
  2236  03EF                     l5440:	
  2237                           
  2238                           ;main.c: 403: if(level >= 5) { (PORTB0 = 0); }
  2239  03EF  3005               	movlw	5
  2240  03F0  0219               	subwf	_level,w
  2241  03F1  1C03               	btfss	3,0
  2242  03F2  2BF5               	goto	l5444
  2243  03F3                     l5442:	
  2244  03F3  1006               	bcf	6,0	;volatile
  2245  03F4  2BFE               	goto	l5450
  2246  03F5                     l5444:	
  2247                           
  2248                           ;main.c: 404: else if(level == 4) { if(chg_pwm_cnt < breath_duty) (PORTB0 = 0); else (PO
      +                          RTB0 = 1); }
  2249  03F5  3004               	movlw	4
  2250  03F6  0619               	xorwf	_level,w
  2251  03F7  1D03               	btfss	3,2
  2252  03F8  2BFD               	goto	l1081
  2253  03F9  0817               	movf	LedMode_Func@breath_duty,w
  2254  03FA  0218               	subwf	LedMode_Func@chg_pwm_cnt,w
  2255  03FB  1C03               	btfss	3,0
  2256  03FC  2BF3               	goto	l5442
  2257  03FD                     l1081:	
  2258  03FD  1406               	bsf	6,0	;volatile
  2259  03FE                     l5450:	
  2260                           
  2261                           ;main.c: 408: if(level >= 6) { (PORTB1 = 0); }
  2262  03FE  3006               	movlw	6
  2263  03FF  0219               	subwf	_level,w
  2264  0400  1803               	btfsc	3,0
  2265  0401  2C07               	goto	l5452
  2266  0402  2C09               	goto	l5454
  2267  0403                     l5456:	
  2268  0403  0817               	movf	LedMode_Func@breath_duty,w
  2269  0404  0218               	subwf	LedMode_Func@chg_pwm_cnt,w
  2270  0405  1803               	btfsc	3,0
  2271  0406  2C0D               	goto	l1087
  2272  0407                     l5452:	
  2273  0407  1086               	bcf	6,1	;volatile
  2274  0408  0008               	return
  2275  0409                     l5454:	
  2276                           
  2277                           ;main.c: 409: else if(level == 5) { if(chg_pwm_cnt < breath_duty) (PORTB1 = 0); else (PO
      +                          RTB1 = 1); }
  2278  0409  3005               	movlw	5
  2279  040A  0619               	xorwf	_level,w
  2280  040B  1903               	btfsc	3,2
  2281  040C  2C03               	goto	l5456
  2282  040D                     l1087:	
  2283  040D  1486               	bsf	6,1	;volatile
  2284  040E  0008               	return
  2285  040F                     l1047:	
  2286                           
  2287                           ;main.c: 413: }
  2288                           ;main.c: 416: if(DIY_Flag2.OnrBit.b0 && g_gear == 6)
  2289  040F  1C21               	btfss	_DIY_Flag2,0
  2290  0410  2C31               	goto	l1090
  2291  0411  3006               	movlw	6
  2292  0412  0620               	xorwf	_g_gear,w
  2293  0413  1D03               	btfss	3,2
  2294  0414  2C31               	goto	l1090
  2295  0415  3014               	movlw	20
  2296                           
  2297                           ;main.c: 417: {
  2298                           ;main.c: 418: breath_cnt++;
  2299  0416  0A96               	incf	LedMode_Func@breath_cnt,f
  2300                           
  2301                           ;main.c: 419: if(breath_cnt >= 20)
  2302  0417  0216               	subwf	LedMode_Func@breath_cnt,w
  2303  0418  1C03               	btfss	3,0
  2304  0419  0008               	return
  2305                           
  2306                           ;main.c: 420: {
  2307                           ;main.c: 421: breath_cnt = 0;
  2308  041A  0196               	clrf	LedMode_Func@breath_cnt
  2309                           
  2310                           ;main.c: 422: if(breath_dir)
  2311  041B  0836               	movf	LedMode_Func@breath_dir,w
  2312  041C  1903               	btfsc	3,2
  2313  041D  2C26               	goto	l5476
  2314                           
  2315                           ;main.c: 423: {
  2316                           ;main.c: 424: if(breath_duty < 50) breath_duty++;
  2317  041E  3032               	movlw	50
  2318  041F  0217               	subwf	LedMode_Func@breath_duty,w
  2319  0420  1803               	btfsc	3,0
  2320  0421  2C24               	goto	l5474
  2321  0422  0A97               	incf	LedMode_Func@breath_duty,f
  2322  0423  2C2D               	goto	l5480
  2323  0424                     l5474:	
  2324                           
  2325                           ;main.c: 425: else breath_dir = 0;
  2326  0424  01B6               	clrf	LedMode_Func@breath_dir
  2327  0425  2C2D               	goto	l5480
  2328  0426                     l5476:	
  2329                           
  2330                           ;main.c: 427: else
  2331                           ;main.c: 428: {
  2332                           ;main.c: 429: if(breath_duty > 0) breath_duty--;
  2333  0426  0817               	movf	LedMode_Func@breath_duty,w
  2334  0427  1903               	btfsc	3,2
  2335  0428  2C2B               	goto	l1096
  2336  0429  0397               	decf	LedMode_Func@breath_duty,f
  2337  042A  2C2D               	goto	l5480
  2338  042B                     l1096:	
  2339                           
  2340                           ;main.c: 430: else breath_dir = 1;
  2341  042B  01B6               	clrf	LedMode_Func@breath_dir
  2342  042C  0AB6               	incf	LedMode_Func@breath_dir,f
  2343  042D                     l5480:	
  2344                           
  2345                           ;main.c: 431: }
  2346                           ;main.c: 432: g_overclock_pwm = breath_duty;
  2347  042D  0817               	movf	LedMode_Func@breath_duty,w
  2348  042E  1683               	bsf	3,5	;RP0=1, select bank1
  2349  042F  00B3               	movwf	_g_overclock_pwm^(0+128)
  2350  0430  0008               	return
  2351  0431                     l1090:	
  2352                           
  2353                           ;main.c: 435: }
  2354                           ;main.c: 438: if(!DIY_Flag2.OnrBit.b2 && !DIY_Flag2.OnrBit.b3 && g_gear != 6)
  2355  0431  1D21               	btfss	_DIY_Flag2,2
  2356  0432  19A1               	btfsc	_DIY_Flag2,3
  2357  0433  2C3D               	goto	l5492
  2358  0434  3006               	movlw	6
  2359  0435  0620               	xorwf	_g_gear,w
  2360  0436  1903               	btfsc	3,2
  2361  0437  2C3D               	goto	l5492
  2362                           
  2363                           ;main.c: 439: {
  2364                           ;main.c: 440: breath_duty = 0;
  2365  0438  0197               	clrf	LedMode_Func@breath_duty
  2366                           
  2367                           ;main.c: 441: breath_dir = 1;
  2368  0439  01B6               	clrf	LedMode_Func@breath_dir
  2369  043A  0AB6               	incf	LedMode_Func@breath_dir,f
  2370                           
  2371                           ;main.c: 442: breath_cnt = 0;
  2372  043B  0196               	clrf	LedMode_Func@breath_cnt
  2373                           
  2374                           ;main.c: 443: chg_pwm_cnt = 0;
  2375  043C  0198               	clrf	LedMode_Func@chg_pwm_cnt
  2376  043D                     l5492:	
  2377                           
  2378                           ;main.c: 444: }
  2379                           ;main.c: 447: if(!DIY_Flag2.OnrBit.b0 && DIY_Flag1.OnrBit.b7)
  2380  043D  1C21               	btfss	_DIY_Flag2,0
  2381  043E  1FA2               	btfss	_DIY_Flag1,7
  2382  043F  2C42               	goto	l1099
  2383                           
  2384                           ;main.c: 448: {
  2385                           ;main.c: 449: show_gear_led(level);
  2386  0440  0819               	movf	_level,w
  2387  0441  2F57               	ljmp	_show_gear_led
  2388  0442                     l1099:	
  2389                           
  2390                           ;main.c: 451: }
  2391                           ;main.c: 454: if(DIY_Flag2.OnrBit.b0 && g_warn_flash > 0)
  2392  0442  1C21               	btfss	_DIY_Flag2,0
  2393  0443  2C47               	goto	l1100
  2394  0444  081D               	movf	_g_warn_flash,w
  2395  0445  1D03               	btfss	3,2
  2396  0446  0008               	return
  2397  0447                     l1100:	
  2398                           
  2399                           ;main.c: 458: if(DIY_Flag2.OnrBit.b0)
  2400  0447  1C21               	btfss	_DIY_Flag2,0
  2401  0448  2B97               	goto	l5372
  2402                           
  2403                           ;main.c: 459: {
  2404                           ;main.c: 460: show_gear_led(g_gear);
  2405  0449  0820               	movf	_g_gear,w
  2406  044A  2F57               	ljmp	_show_gear_led
  2407  044B                     __end_of_LedMode_Func:	
  2408                           
  2409                           	psect	text11
  2410  05E8                     __ptext11:	
  2411  05E8                     _Key_Func:	
  2412 ;; *************** function _Key_Func *****************
  2413 ;; Defined at:
  2414 ;;		line 685 in file "main.c"
  2415 ;; Parameters:    Size  Location     Type
  2416 ;;		None
  2417 ;; Auto vars:     Size  Location     Type
  2418 ;;		None
  2419 ;; Return value:  Size  Location     Type
  2420 ;;                  1    wreg      void 
  2421 ;; Registers used:
  2422 ;;		wreg, status,2, status,0
  2423 ;; Tracked objects:
  2424 ;;		On entry : 0/100
  2425 ;;		On exit  : 0/0
  2426 ;;		Unchanged: 0/0
  2427 ;; Data sizes:     COMMON   BANK0   BANK1
  2428 ;;      Params:         0       0       0
  2429 ;;      Locals:         0       0       0
  2430 ;;      Temps:          0       0       0
  2431 ;;      Totals:         0       0       0
  2432 ;;Total ram usage:        0 bytes
  2433 ;; Hardware stack levels used:    1
  2434 ;; Hardware stack levels required when called:    3
  2435 ;; This function calls:
  2436 ;;		Nothing
  2437 ;; This function is called by:
  2438 ;;		_main
  2439 ;; This function uses a non-reentrant model
  2440 ;;
  2441                           ;psect for function _Key_Func
  2442                           
  2443                           
  2444                           ;main.c: 687: static unsigned char key1_time1 = 0;
  2445                           ;main.c: 688: static unsigned char key1_time2 = 0;
  2446                           ;main.c: 689: static unsigned char key2_time1 = 0;
  2447                           ;main.c: 690: static unsigned char key2_time2 = 0;
  2448                           ;main.c: 692: if(!PORTA2)
  2449                           ;incstack = 0
  2450                           ; Regs used in _Key_Func: [wreg+status,2+status,0]
  2451  05E8  1283               	bcf	3,5	;RP0=0, select bank0
  2452  05E9  1905               	btfsc	5,2	;volatile
  2453  05EA  2DF6               	goto	l4334
  2454  05EB  300A               	movlw	10
  2455                           
  2456                           ;main.c: 693: {
  2457                           ;main.c: 694: key1_time2 = 0;
  2458  05EC  1683               	bsf	3,5	;RP0=1, select bank1
  2459  05ED  01AE               	clrf	Key_Func@key1_time2^(0+128)
  2460                           
  2461                           ;main.c: 695: key1_time1 ++;
  2462  05EE  0AAF               	incf	Key_Func@key1_time1^(0+128),f
  2463                           
  2464                           ;main.c: 696: if(key1_time1 >= 10)
  2465  05EF  022F               	subwf	Key_Func@key1_time1^(0+128),w
  2466  05F0  1C03               	btfss	3,0
  2467  05F1  2E00               	goto	l4344
  2468                           
  2469                           ;main.c: 697: {
  2470                           ;main.c: 698: key1_time1 = 0;
  2471  05F2  01AF               	clrf	Key_Func@key1_time1^(0+128)
  2472                           
  2473                           ;main.c: 699: DIY_Flag1.OnrBit.b1 = 1;
  2474  05F3  1283               	bcf	3,5	;RP0=0, select bank0
  2475  05F4  14A2               	bsf	_DIY_Flag1,1
  2476  05F5  2E00               	goto	l4344
  2477  05F6                     l4334:	
  2478  05F6  300A               	movlw	10
  2479                           
  2480                           ;main.c: 702: else
  2481                           ;main.c: 703: {
  2482                           ;main.c: 705: key1_time1 = 0;
  2483  05F7  1683               	bsf	3,5	;RP0=1, select bank1
  2484  05F8  01AF               	clrf	Key_Func@key1_time1^(0+128)
  2485                           
  2486                           ;main.c: 706: key1_time2 ++;
  2487  05F9  0AAE               	incf	Key_Func@key1_time2^(0+128),f
  2488                           
  2489                           ;main.c: 707: if(key1_time2 >= 10)
  2490  05FA  022E               	subwf	Key_Func@key1_time2^(0+128),w
  2491  05FB  1C03               	btfss	3,0
  2492  05FC  2E00               	goto	l4344
  2493                           
  2494                           ;main.c: 708: {
  2495                           ;main.c: 709: key1_time2 = 0;
  2496  05FD  01AE               	clrf	Key_Func@key1_time2^(0+128)
  2497                           
  2498                           ;main.c: 710: DIY_Flag1.OnrBit.b1 = 0;
  2499  05FE  1283               	bcf	3,5	;RP0=0, select bank0
  2500  05FF  10A2               	bcf	_DIY_Flag1,1
  2501  0600                     l4344:	
  2502                           
  2503                           ;main.c: 711: }
  2504                           ;main.c: 712: }
  2505                           ;main.c: 714: if(!PORTA1)
  2506  0600  1283               	bcf	3,5	;RP0=0, select bank0
  2507  0601  1885               	btfsc	5,1	;volatile
  2508  0602  2E0E               	goto	l4356
  2509  0603  300A               	movlw	10
  2510                           
  2511                           ;main.c: 715: {
  2512                           ;main.c: 716: key2_time2 = 0;
  2513  0604  1683               	bsf	3,5	;RP0=1, select bank1
  2514  0605  01AC               	clrf	Key_Func@key2_time2^(0+128)
  2515                           
  2516                           ;main.c: 717: key2_time1 ++;
  2517  0606  0AAD               	incf	Key_Func@key2_time1^(0+128),f
  2518                           
  2519                           ;main.c: 718: if(key2_time1 >= 10)
  2520  0607  022D               	subwf	Key_Func@key2_time1^(0+128),w
  2521  0608  1C03               	btfss	3,0
  2522  0609  0008               	return
  2523                           
  2524                           ;main.c: 719: {
  2525                           ;main.c: 720: key2_time1 = 0;
  2526  060A  01AD               	clrf	Key_Func@key2_time1^(0+128)
  2527                           
  2528                           ;main.c: 721: DIY_Flag1.OnrBit.b2 = 1;
  2529  060B  1283               	bcf	3,5	;RP0=0, select bank0
  2530  060C  1522               	bsf	_DIY_Flag1,2
  2531  060D  0008               	return
  2532  060E                     l4356:	
  2533  060E  300A               	movlw	10
  2534                           
  2535                           ;main.c: 724: else
  2536                           ;main.c: 725: {
  2537                           ;main.c: 727: key2_time1 = 0;
  2538  060F  1683               	bsf	3,5	;RP0=1, select bank1
  2539  0610  01AD               	clrf	Key_Func@key2_time1^(0+128)
  2540                           
  2541                           ;main.c: 728: key2_time2 ++;
  2542  0611  0AAC               	incf	Key_Func@key2_time2^(0+128),f
  2543                           
  2544                           ;main.c: 729: if(key2_time2 >= 10)
  2545  0612  022C               	subwf	Key_Func@key2_time2^(0+128),w
  2546  0613  1C03               	btfss	3,0
  2547  0614  0008               	return
  2548                           
  2549                           ;main.c: 730: {
  2550                           ;main.c: 731: key2_time2 = 0;
  2551  0615  01AC               	clrf	Key_Func@key2_time2^(0+128)
  2552                           
  2553                           ;main.c: 732: DIY_Flag1.OnrBit.b2 = 0;
  2554  0616  1283               	bcf	3,5	;RP0=0, select bank0
  2555  0617  1122               	bcf	_DIY_Flag1,2
  2556  0618  0008               	return
  2557  0619                     __end_of_Key_Func:	
  2558                           
  2559                           	psect	text12
  2560  018C                     __ptext12:	
  2561  018C                     _Key_Application:	
  2562 ;; *************** function _Key_Application *****************
  2563 ;; Defined at:
  2564 ;;		line 792 in file "main.c"
  2565 ;; Parameters:    Size  Location     Type
  2566 ;;		None
  2567 ;; Auto vars:     Size  Location     Type
  2568 ;;  cur             1    2[BANK1 ] unsigned char 
  2569 ;;  edge            1    1[BANK1 ] unsigned char 
  2570 ;; Return value:  Size  Location     Type
  2571 ;;                  1    wreg      void 
  2572 ;; Registers used:
  2573 ;;		wreg, fsr0l, fsr0h, status,2, status,0, pclath, cstack
  2574 ;; Tracked objects:
  2575 ;;		On entry : 0/100
  2576 ;;		On exit  : 0/0
  2577 ;;		Unchanged: 0/0
  2578 ;; Data sizes:     COMMON   BANK0   BANK1
  2579 ;;      Params:         0       0       0
  2580 ;;      Locals:         0       0       3
  2581 ;;      Temps:          0       0       0
  2582 ;;      Totals:         0       0       3
  2583 ;;Total ram usage:        3 bytes
  2584 ;; Hardware stack levels used:    1
  2585 ;; Hardware stack levels required when called:    5
  2586 ;; This function calls:
  2587 ;;		_Battery_Update
  2588 ;;		_set_fan
  2589 ;;		_show_gear_led
  2590 ;;		_trigger_warn
  2591 ;;		_warn_flash_proc
  2592 ;; This function is called by:
  2593 ;;		_main
  2594 ;; This function uses a non-reentrant model
  2595 ;;
  2596                           ;psect for function _Key_Application
  2597                           
  2598                           
  2599                           ;main.c: 794: unsigned char edge;
  2600                           ;main.c: 795: unsigned char cur;
  2601                           ;main.c: 796: static unsigned char off_key_prev = 0;
  2602                           ;main.c: 797: warn_flash_proc();
  2603                           ;incstack = 0
  2604                           ; Regs used in _Key_Application: [wreg-fsr0h+status,2+status,0+pclath+cstack]
  2605  018C  2649               	fcall	_warn_flash_proc
  2606                           
  2607                           ;main.c: 800: if(g_vdd_adc <= 2363u)
  2608  018D  3009               	movlw	9
  2609  018E  1283               	bcf	3,5	;RP0=0, select bank0
  2610  018F  0211               	subwf	_g_vdd_adc+1,w
  2611  0190  303C               	movlw	60
  2612  0191  1903               	btfsc	3,2
  2613  0192  0210               	subwf	_g_vdd_adc,w
  2614  0193  1803               	btfsc	3,0
  2615  0194  2998               	goto	l5558
  2616                           
  2617                           ;main.c: 801: {
  2618                           ;main.c: 802: g_battery_empty = 1;
  2619  0195  019E               	clrf	_g_battery_empty
  2620  0196  0A9E               	incf	_g_battery_empty,f
  2621                           
  2622                           ;main.c: 803: }
  2623  0197  299F               	goto	l5562
  2624  0198                     l5558:	
  2625                           
  2626                           ;main.c: 804: else if(g_vdd_adc >= 2387u)
  2627  0198  3009               	movlw	9
  2628  0199  0211               	subwf	_g_vdd_adc+1,w
  2629  019A  3053               	movlw	83
  2630  019B  1903               	btfsc	3,2
  2631  019C  0210               	subwf	_g_vdd_adc,w
  2632  019D  1803               	btfsc	3,0
  2633                           
  2634                           ;main.c: 805: {
  2635                           ;main.c: 806: g_battery_empty = 0;
  2636  019E  019E               	clrf	_g_battery_empty
  2637  019F                     l5562:	
  2638                           
  2639                           ;main.c: 807: }
  2640                           ;main.c: 809: if(g_battery_empty)
  2641  019F  081E               	movf	_g_battery_empty,w
  2642  01A0  1903               	btfsc	3,2
  2643  01A1  2A06               	goto	l1248
  2644  01A2  3000               	movlw	0
  2645                           
  2646                           ;main.c: 810: {
  2647                           ;main.c: 811: DIY_Flag2.OnrBit.b0 = 0;
  2648  01A3  1021               	bcf	_DIY_Flag2,0
  2649                           
  2650                           ;main.c: 812: set_fan(0);
  2651  01A4  276D               	fcall	_set_fan
  2652                           
  2653                           ;main.c: 813: (PORTB1 = 1); (PORTB0 = 1); (PORTA7 = 1); (PORTA6 = 1); (PORTA4 = 1);
  2654  01A5  22D0               	fcall	PL2	;call to abstracted procedure
  2655                           
  2656                           ;main.c: 814: DIY_Flag1.OnrBit.b7 = 0;
  2657                           ;main.c: 815: g_offshow_ms = 0;
  2658                           ;main.c: 816: g_warn_flash = 0;
  2659  01A6  22D6               	fcall	PL10	;call to abstracted procedure
  2660  01A7  019D               	clrf	_g_warn_flash
  2661                           
  2662                           ;main.c: 817: g_gear = 0;
  2663  01A8  01A0               	clrf	_g_gear
  2664  01A9  29F7               	goto	l5586
  2665  01AA                     l5596:	
  2666                           
  2667                           ;main.c: 829: {
  2668                           ;main.c: 830: edge = 0;
  2669  01AA  1683               	bsf	3,5	;RP0=1, select bank1
  2670  01AB  01BD               	clrf	Key_Application@edge^(0+128)
  2671                           
  2672                           ;main.c: 831: if(DIY_Flag1.OnrBit.b5)
  2673  01AC  1283               	bcf	3,5	;RP0=0, select bank0
  2674  01AD  1EA2               	btfss	_DIY_Flag1,5
  2675  01AE  29B4               	goto	l1251
  2676                           
  2677                           ;main.c: 832: {
  2678                           ;main.c: 833: edge = 1;
  2679  01AF  1683               	bsf	3,5	;RP0=1, select bank1
  2680  01B0  01BD               	clrf	Key_Application@edge^(0+128)
  2681  01B1  0ABD               	incf	Key_Application@edge^(0+128),f
  2682                           
  2683                           ;main.c: 834: DIY_Flag1.OnrBit.b5 = 0;
  2684  01B2  1283               	bcf	3,5	;RP0=0, select bank0
  2685  01B3  12A2               	bcf	_DIY_Flag1,5
  2686  01B4                     l1251:	
  2687                           
  2688                           ;main.c: 835: }
  2689                           ;main.c: 836: cur = DIY_Flag1.OnrBit.b1 || DIY_Flag1.OnrBit.b2;
  2690  01B4  1683               	bsf	3,5	;RP0=1, select bank1
  2691  01B5  01BC               	clrf	_Key_Application$619^(0+128)
  2692  01B6  0ABC               	incf	_Key_Application$619^(0+128),f
  2693  01B7  1283               	bcf	3,5	;RP0=0, select bank0
  2694  01B8  1CA2               	btfss	_DIY_Flag1,1
  2695  01B9  1922               	btfsc	_DIY_Flag1,2
  2696  01BA  29BD               	goto	l5606
  2697  01BB  1683               	bsf	3,5	;RP0=1, select bank1
  2698  01BC  01BC               	clrf	_Key_Application$619^(0+128)
  2699  01BD                     l5606:	
  2700  01BD  1683               	bsf	3,5	;RP0=1, select bank1
  2701  01BE  083C               	movf	_Key_Application$619^(0+128),w
  2702  01BF  00BE               	movwf	Key_Application@cur^(0+128)
  2703                           
  2704                           ;main.c: 837: if(cur && !off_key_prev)
  2705  01C0  083E               	movf	Key_Application@cur^(0+128),w
  2706  01C1  1903               	btfsc	3,2
  2707  01C2  29C8               	goto	l5614
  2708  01C3  0829               	movf	Key_Application@off_key_prev^(0+128),w
  2709  01C4  1D03               	btfss	3,2
  2710  01C5  29C8               	goto	l5614
  2711                           
  2712                           ;main.c: 838: edge = 1;
  2713  01C6  01BD               	clrf	Key_Application@edge^(0+128)
  2714  01C7  0ABD               	incf	Key_Application@edge^(0+128),f
  2715  01C8                     l5614:	
  2716                           
  2717                           ;main.c: 839: off_key_prev = cur;
  2718  01C8  083E               	movf	Key_Application@cur^(0+128),w
  2719  01C9  00A9               	movwf	Key_Application@off_key_prev^(0+128)
  2720                           
  2721                           ;main.c: 840: if(edge)
  2722  01CA  083D               	movf	Key_Application@edge^(0+128),w
  2723  01CB  1903               	btfsc	3,2
  2724  01CC  29D6               	goto	l5626
  2725                           
  2726                           ;main.c: 841: {
  2727                           ;main.c: 842: Battery_Update();
  2728  01CD  22DC               	fcall	_Battery_Update
  2729                           
  2730                           ;main.c: 843: DIY_Flag1.OnrBit.b7 = 1;
  2731  01CE  1283               	bcf	3,5	;RP0=0, select bank0
  2732  01CF  17A2               	bsf	_DIY_Flag1,7
  2733                           
  2734                           ;main.c: 844: g_offshow_ms = 0;
  2735  01D0  1683               	bsf	3,5	;RP0=1, select bank1
  2736  01D1  019C               	clrf	_g_offshow_ms^(0+128)
  2737  01D2  019D               	clrf	(_g_offshow_ms+1)^(0+128)
  2738                           
  2739                           ;main.c: 845: show_gear_led(level);
  2740  01D3  1283               	bcf	3,5	;RP0=0, select bank0
  2741  01D4  0819               	movf	_level,w
  2742  01D5  2757               	fcall	_show_gear_led
  2743  01D6                     l5626:	
  2744                           
  2745                           ;main.c: 846: }
  2746                           ;main.c: 847: if(DIY_Flag1.OnrBit.b7)
  2747  01D6  1283               	bcf	3,5	;RP0=0, select bank0
  2748  01D7  1FA2               	btfss	_DIY_Flag1,7
  2749  01D8  29E7               	goto	l5646
  2750                           
  2751                           ;main.c: 848: {
  2752                           ;main.c: 849: g_offshow_ms++;
  2753  01D9  1683               	bsf	3,5	;RP0=1, select bank1
  2754  01DA  0A9C               	incf	_g_offshow_ms^(0+128),f
  2755  01DB  1903               	btfsc	3,2
  2756  01DC  0A9D               	incf	(_g_offshow_ms+1)^(0+128),f
  2757                           
  2758                           ;main.c: 850: if(g_offshow_ms >= 5000)
  2759  01DD  3013               	movlw	19
  2760  01DE  021D               	subwf	(_g_offshow_ms+1)^(0+128),w
  2761  01DF  3088               	movlw	136
  2762  01E0  1903               	btfsc	3,2
  2763  01E1  021C               	subwf	_g_offshow_ms^(0+128),w
  2764                           
  2765                           ;main.c: 851: {
  2766                           ;main.c: 852: DIY_Flag1.OnrBit.b7 = 0;
  2767  01E2  1283               	bcf	3,5	;RP0=0, select bank0
  2768  01E3  1C03               	btfss	3,0
  2769  01E4  29E8               	goto	L2
  2770                           
  2771                           ;main.c: 853: g_offshow_ms = 0;
  2772                           ;main.c: 854: (PORTB1 = 1); (PORTB0 = 1); (PORTA7 = 1); (PORTA6 = 1); (PORTA4 = 1);
  2773  01E5  22D6               	fcall	PL10	;call to abstracted procedure
  2774  01E6  22D0               	fcall	PL2	;call to abstracted procedure
  2775  01E7                     l5646:	
  2776                           
  2777                           ;main.c: 855: }
  2778                           ;main.c: 856: }
  2779                           ;main.c: 858: if(g_gear != 0)
  2780  01E7  1283               	bcf	3,5	;RP0=0, select bank0
  2781  01E8                     L2:	
  2782  01E8  0820               	movf	_g_gear,w
  2783  01E9  3000               	movlw	0
  2784  01EA  1903               	btfsc	3,2
  2785  01EB  29F8               	goto	L3
  2786                           
  2787                           ;main.c: 859: {
  2788                           ;main.c: 860: g_gear = 0;
  2789  01EC  01A0               	clrf	_g_gear
  2790                           
  2791                           ;main.c: 861: set_fan(0);
  2792  01ED  276D               	fcall	_set_fan
  2793                           
  2794                           ;main.c: 862: (PORTB1 = 1); (PORTB0 = 1); (PORTA7 = 1); (PORTA6 = 1); (PORTA4 = 1);
  2795  01EE  22D0               	fcall	PL2	;call to abstracted procedure
  2796                           
  2797                           ;main.c: 863: g_warn_flash = 0;
  2798  01EF  019D               	clrf	_g_warn_flash
  2799  01F0  29F7               	goto	l5586
  2800  01F1                     l5676:	
  2801                           
  2802                           ;main.c: 876: {
  2803                           ;main.c: 877: g_pwr_delay_ms++;
  2804  01F1  0A9A               	incf	_g_pwr_delay_ms^(0+128),f
  2805  01F2  1903               	btfsc	3,2
  2806  01F3  0A9B               	incf	(_g_pwr_delay_ms+1)^(0+128),f
  2807                           
  2808                           ;main.c: 878: set_fan(0);
  2809  01F4  3000               	movlw	0
  2810  01F5  276D               	fcall	_set_fan
  2811                           
  2812                           ;main.c: 879: (PORTB1 = 1); (PORTB0 = 1); (PORTA7 = 1); (PORTA6 = 1); (PORTA4 = 1);
  2813  01F6  22D0               	fcall	PL2	;call to abstracted procedure
  2814  01F7                     l5586:	
  2815                           
  2816                           ;main.c: 818: g_k1_prev = DIY_Flag1.OnrBit.b1;
  2817  01F7  3000               	movlw	0
  2818  01F8                     L3:	
  2819  01F8  1283               	bcf	3,5	;RP0=0, select bank0
  2820  01F9                     L1:	
  2821  01F9  18A2               	btfsc	_DIY_Flag1,1
  2822  01FA  3001               	movlw	1
  2823  01FB  009B               	movwf	_g_k1_prev
  2824                           
  2825                           ;main.c: 819: g_k2_prev = DIY_Flag1.OnrBit.b2;
  2826  01FC  3000               	movlw	0
  2827  01FD  1922               	btfsc	_DIY_Flag1,2
  2828  01FE  3001               	movlw	1
  2829  01FF  009A               	movwf	_g_k2_prev
  2830                           
  2831                           ;main.c: 820: g_k1_hold_ms = 0;
  2832  0200  1683               	bsf	3,5	;RP0=1, select bank1
  2833  0201  01A0               	clrf	_g_k1_hold_ms^(0+128)
  2834  0202  01A1               	clrf	(_g_k1_hold_ms+1)^(0+128)
  2835                           
  2836                           ;main.c: 821: g_k2_hold_ms = 0;
  2837  0203  019E               	clrf	_g_k2_hold_ms^(0+128)
  2838  0204  019F               	clrf	(_g_k2_hold_ms+1)^(0+128)
  2839  0205  0008               	return
  2840  0206                     l1248:	
  2841                           
  2842                           ;main.c: 823: }
  2843                           ;main.c: 828: if(DIY_Flag2.OnrBit.b0 == 0)
  2844  0206  1C21               	btfss	_DIY_Flag2,0
  2845  0207  29AA               	goto	l5596
  2846                           
  2847                           ;main.c: 870: }
  2848                           ;main.c: 875: if(g_pwr_delay_ms < 1000)
  2849  0208  3003               	movlw	3
  2850  0209  1683               	bsf	3,5	;RP0=1, select bank1
  2851  020A  021B               	subwf	(_g_pwr_delay_ms+1)^(0+128),w
  2852  020B  30E8               	movlw	232
  2853  020C  1903               	btfsc	3,2
  2854  020D  021A               	subwf	_g_pwr_delay_ms^(0+128),w
  2855  020E  1C03               	btfss	3,0
  2856  020F  29F1               	goto	l5676
  2857                           
  2858                           ;main.c: 885: }
  2859                           ;main.c: 888: if(DIY_Flag2.OnrBit.b2 || DIY_Flag2.OnrBit.b3)
  2860  0210  1283               	bcf	3,5	;RP0=0, select bank0
  2861  0211  1921               	btfsc	_DIY_Flag2,2
  2862  0212  2A15               	goto	l1262
  2863  0213  1DA1               	btfss	_DIY_Flag2,3
  2864  0214  2A2F               	goto	l5734
  2865  0215                     l1262:	
  2866  0215  3001               	movlw	1
  2867                           
  2868                           ;main.c: 889: {
  2869                           ;main.c: 890: g_gear = 1;
  2870  0216  01A0               	clrf	_g_gear
  2871  0217  0AA0               	incf	_g_gear,f
  2872                           
  2873                           ;main.c: 891: set_fan(1);
  2874  0218  276D               	fcall	_set_fan
  2875                           
  2876                           ;main.c: 892: DIY_Flag1.OnrBit.b7 = 0;
  2877  0219  13A2               	bcf	_DIY_Flag1,7
  2878                           
  2879                           ;main.c: 894: if(g_warn_flash == 0)
  2880  021A  081D               	movf	_g_warn_flash,w
  2881  021B  1D03               	btfss	3,2
  2882  021C  2A1F               	goto	l5710
  2883                           
  2884                           ;main.c: 895: show_gear_led(1);
  2885  021D  3001               	movlw	1
  2886  021E  2757               	fcall	_show_gear_led
  2887  021F                     l5710:	
  2888                           
  2889                           ;main.c: 898: if(DIY_Flag1.OnrBit.b2 && !g_k2_prev) trigger_warn(5);
  2890  021F  1D22               	btfss	_DIY_Flag1,2
  2891  0220  2A26               	goto	l5716
  2892  0221  081A               	movf	_g_k2_prev,w
  2893  0222  1D03               	btfss	3,2
  2894  0223  2A26               	goto	l5716
  2895  0224  3005               	movlw	5
  2896  0225  27EA               	fcall	_trigger_warn
  2897  0226                     l5716:	
  2898                           
  2899                           ;main.c: 899: if(DIY_Flag1.OnrBit.b1 && !g_k1_prev) trigger_warn(5);
  2900  0226  1283               	bcf	3,5	;RP0=0, select bank0
  2901  0227  1CA2               	btfss	_DIY_Flag1,1
  2902  0228  29F7               	goto	l5586
  2903  0229  081B               	movf	_g_k1_prev,w
  2904  022A  1D03               	btfss	3,2
  2905  022B  29F7               	goto	l5586
  2906  022C  3005               	movlw	5
  2907  022D  27EA               	fcall	_trigger_warn
  2908  022E  29F7               	goto	l5586
  2909  022F                     l5734:	
  2910                           
  2911                           ;main.c: 907: else
  2912                           ;main.c: 908: {
  2913                           ;main.c: 910: if(g_gear == 0)
  2914  022F  0820               	movf	_g_gear,w
  2915  0230  1D03               	btfss	3,2
  2916  0231  2A38               	goto	l5742
  2917  0232  3001               	movlw	1
  2918                           
  2919                           ;main.c: 911: {
  2920                           ;main.c: 912: g_gear = 1;
  2921  0233  01A0               	clrf	_g_gear
  2922  0234  0AA0               	incf	_g_gear,f
  2923                           
  2924                           ;main.c: 913: set_fan(1);
  2925  0235  276D               	fcall	_set_fan
  2926                           
  2927                           ;main.c: 914: show_gear_led(1);
  2928  0236  3001               	movlw	1
  2929  0237  2757               	fcall	_show_gear_led
  2930  0238                     l5742:	
  2931                           
  2932                           ;main.c: 915: }
  2933                           ;main.c: 917: if(g_warn_flash > 0)
  2934  0238  081D               	movf	_g_warn_flash,w
  2935  0239  1903               	btfsc	3,2
  2936  023A  2A3D               	goto	l1268
  2937                           
  2938                           ;main.c: 918: {
  2939                           ;main.c: 919: g_k1_prev = DIY_Flag1.OnrBit.b1;
  2940  023B  3000               	movlw	0
  2941  023C  29F9               	goto	L1
  2942  023D                     l1268:	
  2943                           
  2944                           ;main.c: 920: g_k2_prev = DIY_Flag1.OnrBit.b2;
  2945                           ;main.c: 924: }
  2946                           ;main.c: 927: if(DIY_Flag1.OnrBit.b2)
  2947  023D  1D22               	btfss	_DIY_Flag1,2
  2948  023E  2A62               	goto	l5770
  2949                           
  2950                           ;main.c: 928: {
  2951                           ;main.c: 929: g_k2_hold_ms++;
  2952  023F  1683               	bsf	3,5	;RP0=1, select bank1
  2953  0240  0A9E               	incf	_g_k2_hold_ms^(0+128),f
  2954  0241  1903               	btfsc	3,2
  2955  0242  0A9F               	incf	(_g_k2_hold_ms+1)^(0+128),f
  2956                           
  2957                           ;main.c: 931: if(g_k2_hold_ms == 500)
  2958  0243  30F4               	movlw	244
  2959  0244  061E               	xorwf	_g_k2_hold_ms^(0+128),w
  2960  0245  1D03               	btfss	3,2
  2961  0246  2A8C               	goto	l5796
  2962  0247  031F               	decf	(_g_k2_hold_ms+1)^(0+128),w
  2963  0248  1D03               	btfss	3,2
  2964  0249  2A8C               	goto	l5796
  2965                           
  2966                           ;main.c: 932: {
  2967                           ;main.c: 933: g_k2_hold_ms = 400;
  2968  024A  3090               	movlw	144
  2969  024B  009E               	movwf	_g_k2_hold_ms^(0+128)
  2970  024C  3001               	movlw	1
  2971  024D  009F               	movwf	(_g_k2_hold_ms^(0+128)+1)
  2972                           
  2973                           ;main.c: 934: if(g_gear < 5)
  2974  024E  3005               	movlw	5
  2975  024F  1283               	bcf	3,5	;RP0=0, select bank0
  2976  0250  0220               	subwf	_g_gear,w
  2977  0251  1803               	btfsc	3,0
  2978  0252  2A59               	goto	l5764
  2979                           
  2980                           ;main.c: 935: {
  2981                           ;main.c: 936: g_gear++;
  2982  0253  0AA0               	incf	_g_gear,f
  2983                           
  2984                           ;main.c: 937: set_fan(g_gear);
  2985  0254  0820               	movf	_g_gear,w
  2986  0255  276D               	fcall	_set_fan
  2987                           
  2988                           ;main.c: 938: show_gear_led(g_gear);
  2989  0256  0820               	movf	_g_gear,w
  2990  0257  2757               	fcall	_show_gear_led
  2991                           
  2992                           ;main.c: 939: }
  2993  0258  2A8C               	goto	l5796
  2994  0259                     l5764:	
  2995                           
  2996                           ;main.c: 940: else if(g_gear == 5)
  2997  0259  3005               	movlw	5
  2998  025A  0620               	xorwf	_g_gear,w
  2999  025B  1D03               	btfss	3,2
  3000  025C  2A8C               	goto	l5796
  3001                           
  3002                           ;main.c: 941: {
  3003                           ;main.c: 942: g_gear = 6;
  3004  025D  3006               	movlw	6
  3005  025E  00A0               	movwf	_g_gear
  3006                           
  3007                           ;main.c: 943: set_fan(6);
  3008  025F  3006               	movlw	6
  3009  0260  276D               	fcall	_set_fan
  3010                           
  3011                           ;main.c: 944: }
  3012                           ;main.c: 945: }
  3013                           ;main.c: 946: }
  3014  0261  2A8C               	goto	l5796
  3015  0262                     l5770:	
  3016                           
  3017                           ;main.c: 947: else
  3018                           ;main.c: 948: {
  3019                           ;main.c: 950: if(g_k2_prev)
  3020  0262  081A               	movf	_g_k2_prev,w
  3021  0263  1903               	btfsc	3,2
  3022  0264  2A89               	goto	l5794
  3023                           
  3024                           ;main.c: 951: {
  3025                           ;main.c: 952: if(g_gear == 6)
  3026  0265  3006               	movlw	6
  3027  0266  0620               	xorwf	_g_gear,w
  3028  0267  1D03               	btfss	3,2
  3029  0268  2A70               	goto	l5780
  3030                           
  3031                           ;main.c: 953: {
  3032                           ;main.c: 955: g_gear = 5;
  3033  0269  3005               	movlw	5
  3034  026A  00A0               	movwf	_g_gear
  3035                           
  3036                           ;main.c: 956: set_fan(5);
  3037  026B  3005               	movlw	5
  3038  026C  276D               	fcall	_set_fan
  3039                           
  3040                           ;main.c: 957: show_gear_led(5);
  3041  026D  3005               	movlw	5
  3042  026E  2757               	fcall	_show_gear_led
  3043                           
  3044                           ;main.c: 958: }
  3045  026F  2A89               	goto	l5794
  3046  0270                     l5780:	
  3047                           
  3048                           ;main.c: 959: else if(g_k2_hold_ms < 500)
  3049  0270  3001               	movlw	1
  3050  0271  1683               	bsf	3,5	;RP0=1, select bank1
  3051  0272  021F               	subwf	(_g_k2_hold_ms+1)^(0+128),w
  3052  0273  30F4               	movlw	244
  3053  0274  1903               	btfsc	3,2
  3054  0275  021E               	subwf	_g_k2_hold_ms^(0+128),w
  3055  0276  1803               	btfsc	3,0
  3056  0277  2A89               	goto	l5794
  3057                           
  3058                           ;main.c: 960: {
  3059                           ;main.c: 962: if(g_gear < 5)
  3060  0278  3005               	movlw	5
  3061  0279  1283               	bcf	3,5	;RP0=0, select bank0
  3062  027A  0220               	subwf	_g_gear,w
  3063  027B  1803               	btfsc	3,0
  3064  027C  2A83               	goto	l5790
  3065                           
  3066                           ;main.c: 963: {
  3067                           ;main.c: 964: g_gear++;
  3068  027D  0AA0               	incf	_g_gear,f
  3069                           
  3070                           ;main.c: 965: set_fan(g_gear);
  3071  027E  0820               	movf	_g_gear,w
  3072  027F  276D               	fcall	_set_fan
  3073                           
  3074                           ;main.c: 966: show_gear_led(g_gear);
  3075  0280  0820               	movf	_g_gear,w
  3076  0281  2757               	fcall	_show_gear_led
  3077                           
  3078                           ;main.c: 967: }
  3079  0282  2A89               	goto	l5794
  3080  0283                     l5790:	
  3081                           
  3082                           ;main.c: 968: else if(g_gear == 5)
  3083  0283  3005               	movlw	5
  3084  0284  0620               	xorwf	_g_gear,w
  3085  0285  1D03               	btfss	3,2
  3086  0286  2A89               	goto	l5794
  3087                           
  3088                           ;main.c: 969: {
  3089                           ;main.c: 970: trigger_warn(1);
  3090  0287  3001               	movlw	1
  3091  0288  27EA               	fcall	_trigger_warn
  3092  0289                     l5794:	
  3093                           
  3094                           ;main.c: 971: }
  3095                           ;main.c: 972: }
  3096                           ;main.c: 973: }
  3097                           ;main.c: 974: g_k2_hold_ms = 0;
  3098  0289  1683               	bsf	3,5	;RP0=1, select bank1
  3099  028A  019E               	clrf	_g_k2_hold_ms^(0+128)
  3100  028B  019F               	clrf	(_g_k2_hold_ms+1)^(0+128)
  3101  028C                     l5796:	
  3102                           
  3103                           ;main.c: 975: }
  3104                           ;main.c: 976: g_k2_prev = DIY_Flag1.OnrBit.b2;
  3105  028C  3000               	movlw	0
  3106  028D  1283               	bcf	3,5	;RP0=0, select bank0
  3107  028E  1922               	btfsc	_DIY_Flag1,2
  3108  028F  3001               	movlw	1
  3109  0290  009A               	movwf	_g_k2_prev
  3110                           
  3111                           ;main.c: 979: if(DIY_Flag1.OnrBit.b1)
  3112  0291  1CA2               	btfss	_DIY_Flag1,1
  3113  0292  2AAD               	goto	l5812
  3114                           
  3115                           ;main.c: 980: {
  3116                           ;main.c: 981: g_k1_hold_ms++;
  3117  0293  1683               	bsf	3,5	;RP0=1, select bank1
  3118  0294  0AA0               	incf	_g_k1_hold_ms^(0+128),f
  3119  0295  1903               	btfsc	3,2
  3120  0296  0AA1               	incf	(_g_k1_hold_ms+1)^(0+128),f
  3121                           
  3122                           ;main.c: 983: if(g_k1_hold_ms == 500)
  3123  0297  30F4               	movlw	244
  3124  0298  0620               	xorwf	_g_k1_hold_ms^(0+128),w
  3125  0299  1D03               	btfss	3,2
  3126  029A  2ACA               	goto	l5830
  3127  029B  0321               	decf	(_g_k1_hold_ms+1)^(0+128),w
  3128  029C  1D03               	btfss	3,2
  3129  029D  2ACA               	goto	l5830
  3130                           
  3131                           ;main.c: 984: {
  3132                           ;main.c: 985: g_k1_hold_ms = 400;
  3133  029E  3090               	movlw	144
  3134  029F  00A0               	movwf	_g_k1_hold_ms^(0+128)
  3135  02A0  3001               	movlw	1
  3136  02A1  00A1               	movwf	(_g_k1_hold_ms^(0+128)+1)
  3137                           
  3138                           ;main.c: 986: if(g_gear > 1)
  3139  02A2  3002               	movlw	2
  3140  02A3  1283               	bcf	3,5	;RP0=0, select bank0
  3141  02A4  0220               	subwf	_g_gear,w
  3142  02A5  1C03               	btfss	3,0
  3143  02A6  2ACA               	goto	l5830
  3144                           
  3145                           ;main.c: 987: {
  3146                           ;main.c: 988: g_gear--;
  3147  02A7  03A0               	decf	_g_gear,f
  3148                           
  3149                           ;main.c: 989: set_fan(g_gear);
  3150  02A8  0820               	movf	_g_gear,w
  3151  02A9  276D               	fcall	_set_fan
  3152                           
  3153                           ;main.c: 990: show_gear_led(g_gear);
  3154  02AA  0820               	movf	_g_gear,w
  3155  02AB  2757               	fcall	_show_gear_led
  3156  02AC  2ACA               	goto	l5830
  3157  02AD                     l5812:	
  3158                           
  3159                           ;main.c: 994: else
  3160                           ;main.c: 995: {
  3161                           ;main.c: 997: if(g_k1_prev)
  3162  02AD  081B               	movf	_g_k1_prev,w
  3163  02AE  1903               	btfsc	3,2
  3164  02AF  2AC7               	goto	l5828
  3165                           
  3166                           ;main.c: 998: {
  3167                           ;main.c: 999: if(g_k1_hold_ms < 500)
  3168  02B0  3001               	movlw	1
  3169  02B1  1683               	bsf	3,5	;RP0=1, select bank1
  3170  02B2  0221               	subwf	(_g_k1_hold_ms+1)^(0+128),w
  3171  02B3  30F4               	movlw	244
  3172  02B4  1903               	btfsc	3,2
  3173  02B5  0220               	subwf	_g_k1_hold_ms^(0+128),w
  3174  02B6  1803               	btfsc	3,0
  3175  02B7  2AC7               	goto	l5828
  3176                           
  3177                           ;main.c: 1000: {
  3178                           ;main.c: 1002: if(g_gear > 1)
  3179  02B8  3002               	movlw	2
  3180  02B9  1283               	bcf	3,5	;RP0=0, select bank0
  3181  02BA  0220               	subwf	_g_gear,w
  3182  02BB  1C03               	btfss	3,0
  3183  02BC  2AC3               	goto	l5824
  3184                           
  3185                           ;main.c: 1003: {
  3186                           ;main.c: 1004: g_gear--;
  3187  02BD  03A0               	decf	_g_gear,f
  3188                           
  3189                           ;main.c: 1005: set_fan(g_gear);
  3190  02BE  0820               	movf	_g_gear,w
  3191  02BF  276D               	fcall	_set_fan
  3192                           
  3193                           ;main.c: 1006: show_gear_led(g_gear);
  3194  02C0  0820               	movf	_g_gear,w
  3195  02C1  2757               	fcall	_show_gear_led
  3196                           
  3197                           ;main.c: 1007: }
  3198  02C2  2AC7               	goto	l5828
  3199  02C3                     l5824:	
  3200                           
  3201                           ;main.c: 1008: else if(g_gear == 1)
  3202  02C3  0B20               	decfsz	_g_gear,w
  3203  02C4  2AC7               	goto	l5828
  3204                           
  3205                           ;main.c: 1009: {
  3206                           ;main.c: 1010: trigger_warn(5);
  3207  02C5  3005               	movlw	5
  3208  02C6  27EA               	fcall	_trigger_warn
  3209  02C7                     l5828:	
  3210                           
  3211                           ;main.c: 1011: }
  3212                           ;main.c: 1012: }
  3213                           ;main.c: 1013: }
  3214                           ;main.c: 1014: g_k1_hold_ms = 0;
  3215  02C7  1683               	bsf	3,5	;RP0=1, select bank1
  3216  02C8  01A0               	clrf	_g_k1_hold_ms^(0+128)
  3217  02C9  01A1               	clrf	(_g_k1_hold_ms+1)^(0+128)
  3218  02CA                     l5830:	
  3219                           
  3220                           ;main.c: 1015: }
  3221                           ;main.c: 1016: g_k1_prev = DIY_Flag1.OnrBit.b1;
  3222  02CA  3000               	movlw	0
  3223  02CB  1283               	bcf	3,5	;RP0=0, select bank0
  3224  02CC  18A2               	btfsc	_DIY_Flag1,1
  3225  02CD  3001               	movlw	1
  3226  02CE  009B               	movwf	_g_k1_prev
  3227  02CF  0008               	return
  3228  02D0                     __end_of_Key_Application:	
  3229  02D0                     PL2:	
  3230  02D0  1486               	bsf	6,1	;volatile
  3231  02D1  1406               	bsf	6,0	;volatile
  3232  02D2  1785               	bsf	5,7	;volatile
  3233  02D3  1705               	bsf	5,6	;volatile
  3234  02D4  1605               	bsf	5,4	;volatile
  3235  02D5  0008               	return
  3236  02D6                     __end_ofPL2:	
  3237  02D6                     PL10:	
  3238  02D6  13A2               	bcf	_DIY_Flag1,7
  3239  02D7  1683               	bsf	3,5	;RP0=1, select bank1
  3240  02D8  019C               	clrf	_g_offshow_ms^(0+128)
  3241  02D9  019D               	clrf	(_g_offshow_ms+1)^(0+128)
  3242  02DA  1283               	bcf	3,5	;RP0=0, select bank0
  3243  02DB  0008               	return
  3244  02DC                     __end_ofPL10:	
  3245                           
  3246                           	psect	text13
  3247  0649                     __ptext13:	
  3248  0649                     _warn_flash_proc:	
  3249 ;; *************** function _warn_flash_proc *****************
  3250 ;; Defined at:
  3251 ;;		line 650 in file "main.c"
  3252 ;; Parameters:    Size  Location     Type
  3253 ;;		None
  3254 ;; Auto vars:     Size  Location     Type
  3255 ;;		None
  3256 ;; Return value:  Size  Location     Type
  3257 ;;                  1    wreg      void 
  3258 ;; Registers used:
  3259 ;;		wreg, status,2, status,0, pclath, cstack
  3260 ;; Tracked objects:
  3261 ;;		On entry : 0/100
  3262 ;;		On exit  : 0/0
  3263 ;;		Unchanged: 0/0
  3264 ;; Data sizes:     COMMON   BANK0   BANK1
  3265 ;;      Params:         0       0       0
  3266 ;;      Locals:         0       0       0
  3267 ;;      Temps:          0       0       0
  3268 ;;      Totals:         0       0       0
  3269 ;;Total ram usage:        0 bytes
  3270 ;; Hardware stack levels used:    1
  3271 ;; Hardware stack levels required when called:    4
  3272 ;; This function calls:
  3273 ;;		_show_gear_led
  3274 ;; This function is called by:
  3275 ;;		_Key_Application
  3276 ;; This function uses a non-reentrant model
  3277 ;;
  3278                           ;psect for function _warn_flash_proc
  3279                           
  3280                           
  3281                           ;main.c: 652: if(g_warn_flash == 0)
  3282                           ;incstack = 0
  3283                           ; Regs used in _warn_flash_proc: [wreg+status,2+status,0+pclath+cstack]
  3284  0649  1283               	bcf	3,5	;RP0=0, select bank0
  3285  064A  081D               	movf	_g_warn_flash,w
  3286  064B  1903               	btfsc	3,2
  3287  064C  0008               	return
  3288  064D  3096               	movlw	150
  3289                           
  3290                           ;main.c: 654: g_warn_cnt++;
  3291  064E  1683               	bsf	3,5	;RP0=1, select bank1
  3292  064F  0AB4               	incf	_g_warn_cnt^(0+128),f
  3293                           
  3294                           ;main.c: 655: if(g_warn_cnt < 150)
  3295  0650  0234               	subwf	_g_warn_cnt^(0+128),w
  3296  0651  1C03               	btfss	3,0
  3297  0652  0008               	return
  3298                           
  3299                           ;main.c: 657: g_warn_cnt = 0;
  3300  0653  01B4               	clrf	_g_warn_cnt^(0+128)
  3301                           
  3302                           ;main.c: 660: DIY_Flag1.OnrBit.b6 = !DIY_Flag1.OnrBit.b6;
  3303  0654  1003               	bcf	3,0
  3304  0655  1283               	bcf	3,5	;RP0=0, select bank0
  3305  0656  1F22               	btfss	_DIY_Flag1,6
  3306  0657  1403               	bsf	3,0
  3307  0658  1283               	bcf	3,5	;RP0=0, select bank0
  3308  0659  1C03               	btfss	3,0
  3309  065A  2E5D               	goto	L4
  3310  065B  1722               	bsf	_DIY_Flag1,6
  3311  065C  2E5E               	goto	u4914
  3312  065D                     L4:	
  3313  065D  1322               	bcf	_DIY_Flag1,6
  3314  065E                     u4914:	
  3315                           
  3316                           ;main.c: 661: g_warn_flash--;
  3317  065E  039D               	decf	_g_warn_flash,f
  3318                           
  3319                           ;main.c: 663: if(g_warn_led == 1)
  3320  065F  0B1C               	decfsz	_g_warn_led,w
  3321  0660  2E6B               	goto	l5224
  3322                           
  3323                           ;main.c: 664: {
  3324                           ;main.c: 666: (PORTA4 = 0); (PORTA6 = 0); (PORTA7 = 0); (PORTB0 = 0);
  3325  0661  1205               	bcf	5,4	;volatile
  3326  0662  1305               	bcf	5,6	;volatile
  3327  0663  1385               	bcf	5,7	;volatile
  3328  0664  1006               	bcf	6,0	;volatile
  3329                           
  3330                           ;main.c: 667: if(DIY_Flag1.OnrBit.b6) (PORTB1 = 1); else (PORTB1 = 0);
  3331  0665  1F22               	btfss	_DIY_Flag1,6
  3332  0666  2E69               	goto	l1204
  3333  0667  1486               	bsf	6,1	;volatile
  3334  0668  2E72               	goto	l5230
  3335  0669                     l1204:	
  3336  0669  1086               	bcf	6,1	;volatile
  3337  066A  2E72               	goto	l5230
  3338  066B                     l5224:	
  3339                           
  3340                           ;main.c: 669: else if(g_warn_led == 5)
  3341  066B  3005               	movlw	5
  3342  066C  061C               	xorwf	_g_warn_led,w
  3343  066D  1D03               	btfss	3,2
  3344  066E  2E72               	goto	l5230
  3345                           
  3346                           ;main.c: 670: {
  3347                           ;main.c: 672: (PORTB1 = 1); (PORTB0 = 1); (PORTA7 = 1); (PORTA6 = 1); (PORTA4 = 1);
  3348  066F  22D0               	fcall	PL2	;call to abstracted procedure
  3349                           
  3350                           ;main.c: 673: if(!DIY_Flag1.OnrBit.b6)
  3351  0670  1F22               	btfss	_DIY_Flag1,6
  3352                           
  3353                           ;main.c: 674: (PORTA4 = 0);
  3354  0671  1205               	bcf	5,4	;volatile
  3355  0672                     l5230:	
  3356                           
  3357                           ;main.c: 675: }
  3358                           ;main.c: 678: if(g_warn_flash == 0)
  3359  0672  081D               	movf	_g_warn_flash,w
  3360  0673  1D03               	btfss	3,2
  3361  0674  0008               	return
  3362                           
  3363                           ;main.c: 679: {
  3364                           ;main.c: 680: show_gear_led(g_gear);
  3365  0675  0820               	movf	_g_gear,w
  3366  0676  2F57               	ljmp	_show_gear_led
  3367  0677                     __end_of_warn_flash_proc:	
  3368                           
  3369                           	psect	text14
  3370  0757                     __ptext14:	
  3371  0757                     _show_gear_led:	
  3372 ;; *************** function _show_gear_led *****************
  3373 ;; Defined at:
  3374 ;;		line 527 in file "main.c"
  3375 ;; Parameters:    Size  Location     Type
  3376 ;;  gear            1    wreg     unsigned char 
  3377 ;; Auto vars:     Size  Location     Type
  3378 ;;  gear            1    7[BANK0 ] unsigned char 
  3379 ;; Return value:  Size  Location     Type
  3380 ;;                  1    wreg      void 
  3381 ;; Registers used:
  3382 ;;		wreg, status,2, status,0
  3383 ;; Tracked objects:
  3384 ;;		On entry : 100/0
  3385 ;;		On exit  : 100/0
  3386 ;;		Unchanged: 0/0
  3387 ;; Data sizes:     COMMON   BANK0   BANK1
  3388 ;;      Params:         0       0       0
  3389 ;;      Locals:         0       1       0
  3390 ;;      Temps:          0       0       0
  3391 ;;      Totals:         0       1       0
  3392 ;;Total ram usage:        1 bytes
  3393 ;; Hardware stack levels used:    1
  3394 ;; Hardware stack levels required when called:    3
  3395 ;; This function calls:
  3396 ;;		Nothing
  3397 ;; This function is called by:
  3398 ;;		_LedMode_Func
  3399 ;;		_warn_flash_proc
  3400 ;;		_Key_Application
  3401 ;; This function uses a non-reentrant model
  3402 ;;
  3403                           ;psect for function _show_gear_led
  3404                           
  3405                           
  3406                           ;incstack = 0
  3407                           ; Regs used in _show_gear_led: [wreg+status,2+status,0]
  3408                           ;show_gear_led@gear stored from wreg
  3409  0757  00AF               	movwf	show_gear_led@gear
  3410                           
  3411                           ;main.c: 529: (PORTB1 = 1); (PORTB0 = 1); (PORTA7 = 1); (PORTA6 = 1); (PORTA4 = 1);
  3412  0758  22D0               	fcall	PL2	;call to abstracted procedure
  3413                           
  3414                           ;main.c: 530: if(gear >= 1) (PORTA4 = 0);
  3415  0759  082F               	movf	show_gear_led@gear,w
  3416  075A  1D03               	btfss	3,2
  3417  075B  1205               	bcf	5,4	;volatile
  3418                           
  3419                           ;main.c: 531: if(gear >= 2) (PORTA6 = 0);
  3420  075C  3002               	movlw	2
  3421  075D  022F               	subwf	show_gear_led@gear,w
  3422  075E  1803               	btfsc	3,0
  3423  075F  1305               	bcf	5,6	;volatile
  3424                           
  3425                           ;main.c: 532: if(gear >= 3) (PORTA7 = 0);
  3426  0760  3003               	movlw	3
  3427  0761  022F               	subwf	show_gear_led@gear,w
  3428  0762  1803               	btfsc	3,0
  3429  0763  1385               	bcf	5,7	;volatile
  3430                           
  3431                           ;main.c: 533: if(gear >= 4) (PORTB0 = 0);
  3432  0764  3004               	movlw	4
  3433  0765  022F               	subwf	show_gear_led@gear,w
  3434  0766  1803               	btfsc	3,0
  3435  0767  1006               	bcf	6,0	;volatile
  3436                           
  3437                           ;main.c: 534: if(gear >= 5) (PORTB1 = 0);
  3438  0768  3005               	movlw	5
  3439  0769  022F               	subwf	show_gear_led@gear,w
  3440  076A  1803               	btfsc	3,0
  3441  076B  1086               	bcf	6,1	;volatile
  3442  076C  0008               	return
  3443  076D                     __end_of_show_gear_led:	
  3444                           
  3445                           	psect	text15
  3446  07EA                     __ptext15:	
  3447  07EA                     _trigger_warn:	
  3448 ;; *************** function _trigger_warn *****************
  3449 ;; Defined at:
  3450 ;;		line 637 in file "main.c"
  3451 ;; Parameters:    Size  Location     Type
  3452 ;;  led_num         1    wreg     unsigned char 
  3453 ;; Auto vars:     Size  Location     Type
  3454 ;;  led_num         1    7[BANK0 ] unsigned char 
  3455 ;; Return value:  Size  Location     Type
  3456 ;;                  1    wreg      void 
  3457 ;; Registers used:
  3458 ;;		wreg, status,2, status,0
  3459 ;; Tracked objects:
  3460 ;;		On entry : 100/0
  3461 ;;		On exit  : 0/0
  3462 ;;		Unchanged: 0/0
  3463 ;; Data sizes:     COMMON   BANK0   BANK1
  3464 ;;      Params:         0       0       0
  3465 ;;      Locals:         0       1       0
  3466 ;;      Temps:          0       0       0
  3467 ;;      Totals:         0       1       0
  3468 ;;Total ram usage:        1 bytes
  3469 ;; Hardware stack levels used:    1
  3470 ;; Hardware stack levels required when called:    3
  3471 ;; This function calls:
  3472 ;;		Nothing
  3473 ;; This function is called by:
  3474 ;;		_Key_Application
  3475 ;; This function uses a non-reentrant model
  3476 ;;
  3477                           ;psect for function _trigger_warn
  3478                           
  3479                           
  3480                           ;incstack = 0
  3481                           ; Regs used in _trigger_warn: [wreg+status,2+status,0]
  3482                           ;trigger_warn@led_num stored from wreg
  3483  07EA  00AF               	movwf	trigger_warn@led_num
  3484                           
  3485                           ;main.c: 639: if(g_warn_flash == 0)
  3486  07EB  081D               	movf	_g_warn_flash,w
  3487  07EC  1D03               	btfss	3,2
  3488  07ED  0008               	return
  3489                           
  3490                           ;main.c: 640: {
  3491                           ;main.c: 641: g_warn_flash = 4;
  3492  07EE  3004               	movlw	4
  3493  07EF  009D               	movwf	_g_warn_flash
  3494                           
  3495                           ;main.c: 642: g_warn_led = led_num;
  3496  07F0  082F               	movf	trigger_warn@led_num,w
  3497  07F1  009C               	movwf	_g_warn_led
  3498                           
  3499                           ;main.c: 643: DIY_Flag1.OnrBit.b6 = 0;
  3500  07F2  1322               	bcf	_DIY_Flag1,6
  3501                           
  3502                           ;main.c: 644: g_warn_cnt = 0;
  3503  07F3  1683               	bsf	3,5	;RP0=1, select bank1
  3504  07F4  01B4               	clrf	_g_warn_cnt^(0+128)
  3505  07F5  0008               	return
  3506  07F6                     __end_of_trigger_warn:	
  3507                           
  3508                           	psect	text16
  3509  076D                     __ptext16:	
  3510  076D                     _set_fan:	
  3511 ;; *************** function _set_fan *****************
  3512 ;; Defined at:
  3513 ;;		line 542 in file "main.c"
  3514 ;; Parameters:    Size  Location     Type
  3515 ;;  gear            1    wreg     unsigned char 
  3516 ;; Auto vars:     Size  Location     Type
  3517 ;;  gear            1    7[BANK0 ] unsigned char 
  3518 ;; Return value:  Size  Location     Type
  3519 ;;                  1    wreg      void 
  3520 ;; Registers used:
  3521 ;;		wreg, fsr0l, fsr0h, status,2, status,0, pclath
  3522 ;; Tracked objects:
  3523 ;;		On entry : 0/0
  3524 ;;		On exit  : 100/0
  3525 ;;		Unchanged: 0/0
  3526 ;; Data sizes:     COMMON   BANK0   BANK1
  3527 ;;      Params:         0       0       0
  3528 ;;      Locals:         0       1       0
  3529 ;;      Temps:          0       0       0
  3530 ;;      Totals:         0       1       0
  3531 ;;Total ram usage:        1 bytes
  3532 ;; Hardware stack levels used:    1
  3533 ;; Hardware stack levels required when called:    3
  3534 ;; This function calls:
  3535 ;;		Nothing
  3536 ;; This function is called by:
  3537 ;;		_Key_Application
  3538 ;;		_main
  3539 ;; This function uses a non-reentrant model
  3540 ;;
  3541                           ;psect for function _set_fan
  3542                           
  3543                           
  3544                           ;incstack = 0
  3545                           ; Regs used in _set_fan: [wreg-fsr0h+status,2+status,0+pclath]
  3546                           ;set_fan@gear stored from wreg
  3547  076D  1283               	bcf	3,5	;RP0=0, select bank0
  3548  076E  00AF               	movwf	set_fan@gear
  3549                           
  3550                           ;main.c: 544: if(gear == 0)
  3551  076F  082F               	movf	set_fan@gear,w
  3552  0770  1D03               	btfss	3,2
  3553  0771  2F74               	goto	l5190
  3554                           
  3555                           ;main.c: 545: {
  3556                           ;main.c: 546: g_target_pwm = 0;
  3557  0772  019F               	clrf	_g_target_pwm
  3558  0773  0008               	return
  3559  0774                     l5190:	
  3560                           
  3561                           ;main.c: 548: }
  3562                           ;main.c: 549: if(gear > 6)
  3563  0774  3007               	movlw	7
  3564  0775  022F               	subwf	set_fan@gear,w
  3565  0776  1C03               	btfss	3,0
  3566  0777  2F7A               	goto	l5194
  3567                           
  3568                           ;main.c: 550: gear = 6;
  3569  0778  3006               	movlw	6
  3570  0779  00AF               	movwf	set_fan@gear
  3571  077A                     l5194:	
  3572                           
  3573                           ;main.c: 552: g_target_pwm = c_fan_duty[gear];
  3574  077A  082F               	movf	set_fan@gear,w
  3575  077B  3E01               	addlw	low ((_c_fan_duty-__stringbase)| (0+32768))
  3576  077C  0084               	movwf	4
  3577  077D  27D0               	fcall	stringdir
  3578  077E  009F               	movwf	_g_target_pwm
  3579  077F  0008               	return
  3580  0780                     __end_of_set_fan:	
  3581                           
  3582                           	psect	text17
  3583  02DC                     __ptext17:	
  3584  02DC                     _Battery_Update:	
  3585 ;; *************** function _Battery_Update *****************
  3586 ;; Defined at:
  3587 ;;		line 467 in file "main.c"
  3588 ;; Parameters:    Size  Location     Type
  3589 ;;		None
  3590 ;; Auto vars:     Size  Location     Type
  3591 ;;		None
  3592 ;; Return value:  Size  Location     Type
  3593 ;;                  1    wreg      void 
  3594 ;; Registers used:
  3595 ;;		wreg, status,2, status,0, pclath, cstack
  3596 ;; Tracked objects:
  3597 ;;		On entry : 0/100
  3598 ;;		On exit  : 0/0
  3599 ;;		Unchanged: 0/0
  3600 ;; Data sizes:     COMMON   BANK0   BANK1
  3601 ;;      Params:         0       0       0
  3602 ;;      Locals:         0       0       0
  3603 ;;      Temps:          0       2       0
  3604 ;;      Totals:         0       2       0
  3605 ;;Total ram usage:        2 bytes
  3606 ;; Hardware stack levels used:    1
  3607 ;; Hardware stack levels required when called:    4
  3608 ;; This function calls:
  3609 ;;		_adc_read_vdd
  3610 ;; This function is called by:
  3611 ;;		_Key_Application
  3612 ;;		_main
  3613 ;; This function uses a non-reentrant model
  3614 ;;
  3615                           ;psect for function _Battery_Update
  3616                           
  3617                           
  3618                           ;main.c: 469: static unsigned char loop_num = 0;
  3619                           ;main.c: 470: static unsigned int loop_sum = 0;
  3620                           ;main.c: 471: static unsigned char low_debounce = 0;
  3621                           ;main.c: 472: static unsigned char low_clr_debounce = 0;
  3622                           ;main.c: 473: static unsigned char startup_cnt = 50;
  3623                           ;main.c: 475: loop_sum += adc_read_vdd();
  3624                           ;incstack = 0
  3625                           ; Regs used in _Battery_Update: [wreg+status,2+status,0+pclath+cstack]
  3626  02DC  26E8               	fcall	_adc_read_vdd
  3627  02DD  082F               	movf	?_adc_read_vdd,w
  3628  02DE  1683               	bsf	3,5	;RP0=1, select bank1
  3629  02DF  0794               	addwf	Battery_Update@loop_sum^(0+128),f
  3630  02E0  1803               	btfsc	3,0
  3631  02E1  0A95               	incf	(Battery_Update@loop_sum+1)^(0+128),f
  3632  02E2  1283               	bcf	3,5	;RP0=0, select bank0
  3633  02E3  0830               	movf	?_adc_read_vdd+1,w
  3634  02E4  1683               	bsf	3,5	;RP0=1, select bank1
  3635  02E5  0795               	addwf	(Battery_Update@loop_sum+1)^(0+128),f
  3636  02E6  3008               	movlw	8
  3637                           
  3638                           ;main.c: 476: loop_num++;
  3639  02E7  0AB2               	incf	Battery_Update@loop_num^(0+128),f
  3640                           
  3641                           ;main.c: 477: if(loop_num < 8) return;
  3642  02E8  0232               	subwf	Battery_Update@loop_num^(0+128),w
  3643  02E9  1C03               	btfss	3,0
  3644  02EA  0008               	return
  3645                           
  3646                           ;main.c: 479: g_vdd_adc = (unsigned int)(loop_sum >> 3);
  3647  02EB  0815               	movf	(Battery_Update@loop_sum+1)^(0+128),w
  3648  02EC  1283               	bcf	3,5	;RP0=0, select bank0
  3649  02ED  00B4               	movwf	??_Battery_Update+1
  3650  02EE  1683               	bsf	3,5	;RP0=1, select bank1
  3651  02EF  0814               	movf	Battery_Update@loop_sum^(0+128),w
  3652  02F0  1283               	bcf	3,5	;RP0=0, select bank0
  3653  02F1  00B3               	movwf	??_Battery_Update
  3654  02F2  1003               	bcf	3,0
  3655  02F3  0CB4               	rrf	??_Battery_Update+1,f
  3656  02F4  0CB3               	rrf	??_Battery_Update,f
  3657  02F5  1003               	bcf	3,0
  3658  02F6  0CB4               	rrf	??_Battery_Update+1,f
  3659  02F7  0CB3               	rrf	??_Battery_Update,f
  3660  02F8  1003               	bcf	3,0
  3661  02F9  0CB4               	rrf	??_Battery_Update+1,f
  3662  02FA  0CB3               	rrf	??_Battery_Update,f
  3663  02FB  0833               	movf	??_Battery_Update,w
  3664  02FC  0090               	movwf	_g_vdd_adc
  3665  02FD  0834               	movf	??_Battery_Update+1,w
  3666  02FE  0091               	movwf	_g_vdd_adc+1
  3667                           
  3668                           ;main.c: 480: loop_num = 0;
  3669  02FF  1683               	bsf	3,5	;RP0=1, select bank1
  3670  0300  01B2               	clrf	Battery_Update@loop_num^(0+128)
  3671                           
  3672                           ;main.c: 481: loop_sum = 0;
  3673  0301  0194               	clrf	Battery_Update@loop_sum^(0+128)
  3674  0302  0195               	clrf	(Battery_Update@loop_sum+1)^(0+128)
  3675                           
  3676                           ;main.c: 483: if(DIY_Flag2.OnrBit.b3) level = 6;
  3677  0303  1283               	bcf	3,5	;RP0=0, select bank0
  3678  0304  1DA1               	btfss	_DIY_Flag2,3
  3679  0305  2B08               	goto	l1116
  3680  0306                     l5108:	
  3681  0306  3006               	movlw	6
  3682  0307  2B63               	goto	L8
  3683  0308                     l1116:	
  3684                           
  3685                           ;main.c: 485: else if(DIY_Flag2.OnrBit.b2)
  3686  0308  1D21               	btfss	_DIY_Flag2,2
  3687  0309  2B38               	goto	l5132
  3688                           
  3689                           ;main.c: 486: {
  3690                           ;main.c: 487: if(g_vdd_adc < 2363u) level = 0;
  3691  030A  3009               	movlw	9
  3692  030B  0211               	subwf	_g_vdd_adc+1,w
  3693  030C  303B               	movlw	59
  3694  030D  1903               	btfsc	3,2
  3695  030E  0210               	subwf	_g_vdd_adc,w
  3696  030F  1803               	btfsc	3,0
  3697  0310  2B13               	goto	l5114
  3698  0311                     l5112:	
  3699  0311  0199               	clrf	_level
  3700  0312  2B64               	goto	l5158
  3701  0313                     l5114:	
  3702                           
  3703                           ;main.c: 488: else if(g_vdd_adc < 2678u) level = 1;
  3704  0313  300A               	movlw	10
  3705  0314  0211               	subwf	_g_vdd_adc+1,w
  3706  0315  3076               	movlw	118
  3707  0316  1903               	btfsc	3,2
  3708  0317  0210               	subwf	_g_vdd_adc,w
  3709  0318  1803               	btfsc	3,0
  3710  0319  2B1D               	goto	l5118
  3711  031A                     l5116:	
  3712  031A  0199               	clrf	_level
  3713  031B  0A99               	incf	_level,f
  3714  031C  2B64               	goto	l5158
  3715  031D                     l5118:	
  3716                           
  3717                           ;main.c: 489: else if(g_vdd_adc < 2914u) level = 2;
  3718  031D  300B               	movlw	11
  3719  031E  0211               	subwf	_g_vdd_adc+1,w
  3720  031F  3062               	movlw	98
  3721  0320  1903               	btfsc	3,2
  3722  0321  0210               	subwf	_g_vdd_adc,w
  3723  0322  1803               	btfsc	3,0
  3724  0323  2B26               	goto	l5122
  3725  0324                     l5120:	
  3726  0324  3002               	movlw	2
  3727  0325  2B63               	goto	L8
  3728  0326                     l5122:	
  3729                           
  3730                           ;main.c: 490: else if(g_vdd_adc < 3072u) level = 3;
  3731  0326  300C               	movlw	12
  3732  0327  0211               	subwf	_g_vdd_adc+1,w
  3733  0328  3000               	movlw	0
  3734  0329  1903               	btfsc	3,2
  3735  032A  0210               	subwf	_g_vdd_adc,w
  3736  032B  1803               	btfsc	3,0
  3737  032C  2B2F               	goto	l5126
  3738  032D                     l5124:	
  3739  032D  3003               	movlw	3
  3740  032E  2B63               	goto	L8
  3741  032F                     l5126:	
  3742                           
  3743                           ;main.c: 491: else if(g_vdd_adc < 3229u) level = 4;
  3744  032F  300C               	movlw	12
  3745  0330  0211               	subwf	_g_vdd_adc+1,w
  3746  0331  309D               	movlw	157
  3747  0332  1903               	btfsc	3,2
  3748  0333  0210               	subwf	_g_vdd_adc,w
  3749  0334  1803               	btfsc	3,0
  3750  0335  2B62               	goto	l5130
  3751  0336                     l5128:	
  3752  0336  3004               	movlw	4
  3753  0337  2B63               	goto	L8
  3754  0338                     l5132:	
  3755                           
  3756                           ;main.c: 494: else
  3757                           ;main.c: 495: {
  3758                           ;main.c: 496: if(g_vdd_adc < 2363u) level = 0;
  3759  0338  3009               	movlw	9
  3760  0339  0211               	subwf	_g_vdd_adc+1,w
  3761  033A  303B               	movlw	59
  3762  033B  1903               	btfsc	3,2
  3763  033C  0210               	subwf	_g_vdd_adc,w
  3764  033D  1C03               	btfss	3,0
  3765  033E  2B11               	goto	l5112
  3766                           
  3767                           ;main.c: 497: else if(g_vdd_adc < 2678u) level = 1;
  3768  033F  300A               	movlw	10
  3769  0340  0211               	subwf	_g_vdd_adc+1,w
  3770  0341  3076               	movlw	118
  3771  0342  1903               	btfsc	3,2
  3772  0343  0210               	subwf	_g_vdd_adc,w
  3773  0344  1C03               	btfss	3,0
  3774  0345  2B1A               	goto	l5116
  3775                           
  3776                           ;main.c: 498: else if(g_vdd_adc < 2914u) level = 2;
  3777  0346  300B               	movlw	11
  3778  0347  0211               	subwf	_g_vdd_adc+1,w
  3779  0348  3062               	movlw	98
  3780  0349  1903               	btfsc	3,2
  3781  034A  0210               	subwf	_g_vdd_adc,w
  3782  034B  1C03               	btfss	3,0
  3783  034C  2B24               	goto	l5120
  3784                           
  3785                           ;main.c: 499: else if(g_vdd_adc < 3072u) level = 3;
  3786  034D  300C               	movlw	12
  3787  034E  0211               	subwf	_g_vdd_adc+1,w
  3788  034F  3000               	movlw	0
  3789  0350  1903               	btfsc	3,2
  3790  0351  0210               	subwf	_g_vdd_adc,w
  3791  0352  1C03               	btfss	3,0
  3792  0353  2B2D               	goto	l5124
  3793                           
  3794                           ;main.c: 500: else if(g_vdd_adc < 3229u) level = 4;
  3795  0354  300C               	movlw	12
  3796  0355  0211               	subwf	_g_vdd_adc+1,w
  3797  0356  309D               	movlw	157
  3798  0357  1903               	btfsc	3,2
  3799  0358  0210               	subwf	_g_vdd_adc,w
  3800  0359  1C03               	btfss	3,0
  3801  035A  2B36               	goto	l5128
  3802                           
  3803                           ;main.c: 501: else if(g_vdd_adc < 3268u) level = 5;
  3804  035B  300C               	movlw	12
  3805  035C  0211               	subwf	_g_vdd_adc+1,w
  3806  035D  30C4               	movlw	196
  3807  035E  1903               	btfsc	3,2
  3808  035F  0210               	subwf	_g_vdd_adc,w
  3809  0360  1803               	btfsc	3,0
  3810  0361  2B06               	goto	l5108
  3811  0362                     l5130:	
  3812                           
  3813                           ;main.c: 492: else level = 5;
  3814  0362  3005               	movlw	5
  3815  0363                     L8:	
  3816  0363  0099               	movwf	_level
  3817  0364                     l5158:	
  3818                           
  3819                           ;main.c: 503: }
  3820                           ;main.c: 506: if(startup_cnt > 0) { startup_cnt--; DIY_Flag2.OnrBit.b1 = 0; return; }
  3821  0364  1683               	bsf	3,5	;RP0=1, select bank1
  3822  0365  0848               	movf	Battery_Update@startup_cnt^(0+128),w
  3823  0366  1903               	btfsc	3,2
  3824  0367  2B6C               	goto	l1142
  3825  0368  03C8               	decf	Battery_Update@startup_cnt^(0+128),f
  3826  0369  1283               	bcf	3,5	;RP0=0, select bank0
  3827  036A  10A1               	bcf	_DIY_Flag2,1
  3828  036B  0008               	return
  3829  036C                     l1142:	
  3830                           
  3831                           ;main.c: 508: if(!DIY_Flag2.OnrBit.b1)
  3832  036C  1283               	bcf	3,5	;RP0=0, select bank0
  3833  036D  18A1               	btfsc	_DIY_Flag2,1
  3834  036E  2B8A               	goto	l5174
  3835                           
  3836                           ;main.c: 509: {
  3837                           ;main.c: 511: if(g_vdd_adc < 2521u) { if(++low_debounce >= 5) DIY_Flag2.OnrBit.b1 = 1; }
  3838  036F  3009               	movlw	9
  3839  0370  0211               	subwf	_g_vdd_adc+1,w
  3840  0371  30D9               	movlw	217
  3841  0372  1903               	btfsc	3,2
  3842  0373  0210               	subwf	_g_vdd_adc,w
  3843  0374  1803               	btfsc	3,0
  3844  0375  2B87               	goto	l5172
  3845  0376  3005               	movlw	5
  3846  0377  1683               	bsf	3,5	;RP0=1, select bank1
  3847  0378  0AB1               	incf	Battery_Update@low_debounce^(0+128),f
  3848  0379  0231               	subwf	Battery_Update@low_debounce^(0+128),w
  3849  037A  1C03               	btfss	3,0
  3850  037B  0008               	return
  3851  037C  1283               	bcf	3,5	;RP0=0, select bank0
  3852  037D  14A1               	bsf	_DIY_Flag2,1
  3853  037E  0008               	return
  3854  037F                     l5176:	
  3855  037F  3003               	movlw	3
  3856  0380  1683               	bsf	3,5	;RP0=1, select bank1
  3857  0381  0AB0               	incf	Battery_Update@low_clr_debounce^(0+128),f
  3858  0382  0230               	subwf	Battery_Update@low_clr_debounce^(0+128),w
  3859  0383  1C03               	btfss	3,0
  3860  0384  0008               	return
  3861  0385  1283               	bcf	3,5	;RP0=0, select bank0
  3862  0386  10A1               	bcf	_DIY_Flag2,1
  3863  0387                     l5172:	
  3864                           
  3865                           ;main.c: 512: else { low_debounce = 0; }
  3866  0387  1683               	bsf	3,5	;RP0=1, select bank1
  3867  0388  01B1               	clrf	Battery_Update@low_debounce^(0+128)
  3868  0389  0008               	return
  3869  038A                     l5174:	
  3870                           
  3871                           ;main.c: 514: else
  3872                           ;main.c: 515: {
  3873                           ;main.c: 517: if(g_vdd_adc >= 2544u) { if(++low_clr_debounce >= 3) { DIY_Flag2.OnrBit.b1
      +                           = 0; low_debounce = 0; } }
  3874  038A  3009               	movlw	9
  3875  038B  0211               	subwf	_g_vdd_adc+1,w
  3876  038C  30F0               	movlw	240
  3877  038D  1903               	btfsc	3,2
  3878  038E  0210               	subwf	_g_vdd_adc,w
  3879  038F  1803               	btfsc	3,0
  3880  0390  2B7F               	goto	l5176
  3881                           
  3882                           ;main.c: 518: else { low_clr_debounce = 0; }
  3883  0391  1683               	bsf	3,5	;RP0=1, select bank1
  3884  0392  01B0               	clrf	Battery_Update@low_clr_debounce^(0+128)
  3885  0393  0008               	return
  3886  0394                     __end_of_Battery_Update:	
  3887                           
  3888                           	psect	text18
  3889  06E8                     __ptext18:	
  3890  06E8                     _adc_read_vdd:	
  3891 ;; *************** function _adc_read_vdd *****************
  3892 ;; Defined at:
  3893 ;;		line 315 in file "main.c"
  3894 ;; Parameters:    Size  Location     Type
  3895 ;;		None
  3896 ;; Auto vars:     Size  Location     Type
  3897 ;;  result          2    9[BANK0 ] unsigned int 
  3898 ;; Return value:  Size  Location     Type
  3899 ;;                  2    7[BANK0 ] unsigned int 
  3900 ;; Registers used:
  3901 ;;		wreg, status,2, status,0
  3902 ;; Tracked objects:
  3903 ;;		On entry : 0/100
  3904 ;;		On exit  : 100/0
  3905 ;;		Unchanged: 0/0
  3906 ;; Data sizes:     COMMON   BANK0   BANK1
  3907 ;;      Params:         0       2       0
  3908 ;;      Locals:         0       2       0
  3909 ;;      Temps:          0       0       0
  3910 ;;      Totals:         0       4       0
  3911 ;;Total ram usage:        4 bytes
  3912 ;; Hardware stack levels used:    1
  3913 ;; Hardware stack levels required when called:    3
  3914 ;; This function calls:
  3915 ;;		Nothing
  3916 ;; This function is called by:
  3917 ;;		_Battery_Update
  3918 ;; This function uses a non-reentrant model
  3919 ;;
  3920                           ;psect for function _adc_read_vdd
  3921                           
  3922                           
  3923                           ;main.c: 317: unsigned int result;
  3924                           ;main.c: 319: ADCON0 = 0x15;
  3925                           ;incstack = 0
  3926                           ; Regs used in _adc_read_vdd: [wreg+status,2+status,0]
  3927  06E8  3015               	movlw	21
  3928  06E9  1283               	bcf	3,5	;RP0=0, select bank0
  3929  06EA  00DA               	movwf	90	;volatile
  3930                           
  3931                           ;main.c: 320: ADCON1 = adcon1_val;
  3932  06EB  0823               	movf	_adcon1_val,w
  3933  06EC  00DB               	movwf	91	;volatile
  3934                           
  3935                           ;main.c: 321: ADEN = 1;
  3936  06ED  145A               	bsf	90,0	;volatile
  3937                           
  3938                           ;main.c: 323: ADIF = 0;
  3939  06EE  110F               	bcf	15,2	;volatile
  3940                           
  3941                           ;main.c: 324: ADON = 1;
  3942  06EF  14DA               	bsf	90,1	;volatile
  3943  06F0                     l1031:	
  3944                           
  3945                           ;main.c: 326: while(ADON)
  3946  06F0  1283               	bcf	3,5	;RP0=0, select bank0
  3947  06F1  1CDA               	btfss	90,1	;volatile
  3948  06F2  2EF5               	goto	l5024
  3949  06F3  0064               	clrwdt	;# 
  3950  06F4  2EF0               	goto	l1031
  3951  06F5                     l5024:	
  3952                           
  3953                           ;main.c: 331: }
  3954                           ;main.c: 333: result = ((unsigned int)ADRESH << 4) | (ADRESL >> 4);
  3955  06F5  0859               	movf	89,w	;volatile
  3956  06F6  00B1               	movwf	adc_read_vdd@result
  3957  06F7  30F0               	movlw	240
  3958  06F8  01B2               	clrf	adc_read_vdd@result+1
  3959  06F9  0EB1               	swapf	adc_read_vdd@result,f
  3960  06FA  0EB2               	swapf	adc_read_vdd@result+1,f
  3961  06FB  05B2               	andwf	adc_read_vdd@result+1,f
  3962  06FC  0831               	movf	adc_read_vdd@result,w
  3963  06FD  390F               	andlw	15
  3964  06FE  04B2               	iorwf	adc_read_vdd@result+1,f
  3965  06FF  30F0               	movlw	240
  3966  0700  05B1               	andwf	adc_read_vdd@result,f
  3967  0701  0E58               	swapf	88,w	;volatile
  3968  0702  390F               	andlw	15
  3969  0703  04B1               	iorwf	adc_read_vdd@result,f
  3970                           
  3971                           ;main.c: 334: return result;
  3972  0704  0832               	movf	adc_read_vdd@result+1,w
  3973  0705  00B0               	movwf	?_adc_read_vdd+1
  3974  0706  0831               	movf	adc_read_vdd@result,w
  3975  0707  00AF               	movwf	?_adc_read_vdd
  3976  0708  0008               	return
  3977  0709                     __end_of_adc_read_vdd:	
  3978                           
  3979                           	psect	text19
  3980  04BD                     __ptext19:	
  3981  04BD                     _Gear5_Duty_Update:	
  3982 ;; *************** function _Gear5_Duty_Update *****************
  3983 ;; Defined at:
  3984 ;;		line 561 in file "main.c"
  3985 ;; Parameters:    Size  Location     Type
  3986 ;;		None
  3987 ;; Auto vars:     Size  Location     Type
  3988 ;;		None
  3989 ;; Return value:  Size  Location     Type
  3990 ;;                  1    wreg      void 
  3991 ;; Registers used:
  3992 ;;		wreg, status,2, status,0, pclath, cstack
  3993 ;; Tracked objects:
  3994 ;;		On entry : 0/100
  3995 ;;		On exit  : 0/0
  3996 ;;		Unchanged: 0/0
  3997 ;; Data sizes:     COMMON   BANK0   BANK1
  3998 ;;      Params:         0       0       0
  3999 ;;      Locals:         0       0       0
  4000 ;;      Temps:          0       0       0
  4001 ;;      Totals:         0       0       0
  4002 ;;Total ram usage:        0 bytes
  4003 ;; Hardware stack levels used:    1
  4004 ;; Hardware stack levels required when called:    4
  4005 ;; This function calls:
  4006 ;;		___lwdiv
  4007 ;;		___wmul
  4008 ;; This function is called by:
  4009 ;;		_main
  4010 ;; This function uses a non-reentrant model
  4011 ;;
  4012                           ;psect for function _Gear5_Duty_Update
  4013                           
  4014                           
  4015                           ;main.c: 563: static unsigned int ms_sub = 0;
  4016                           ;main.c: 564: static unsigned int sec_cnt = 0;
  4017                           ;main.c: 565: static unsigned char cur_percent = 85;
  4018                           ;main.c: 567: if(g_gear != 5 || DIY_Flag2.OnrBit.b2 || DIY_Flag2.OnrBit.b3)
  4019                           ;incstack = 0
  4020                           ; Regs used in _Gear5_Duty_Update: [wreg+status,2+status,0+pclath+cstack]
  4021  04BD  3005               	movlw	5
  4022  04BE  1283               	bcf	3,5	;RP0=0, select bank0
  4023  04BF  0620               	xorwf	_g_gear,w
  4024  04C0  1903               	btfsc	3,2
  4025  04C1  1921               	btfsc	_DIY_Flag2,2
  4026  04C2  2CC5               	goto	l5514
  4027  04C3  1DA1               	btfss	_DIY_Flag2,3
  4028  04C4  2CCE               	goto	l5520
  4029  04C5                     l5514:	
  4030  04C5  3055               	movlw	85
  4031                           
  4032                           ;main.c: 568: {
  4033                           ;main.c: 569: ms_sub = 0;
  4034  04C6  1683               	bsf	3,5	;RP0=1, select bank1
  4035  04C7  0192               	clrf	Gear5_Duty_Update@ms_sub^(0+128)
  4036  04C8  0193               	clrf	(Gear5_Duty_Update@ms_sub+1)^(0+128)
  4037                           
  4038                           ;main.c: 570: sec_cnt = 0;
  4039  04C9  0190               	clrf	Gear5_Duty_Update@sec_cnt^(0+128)
  4040  04CA  0191               	clrf	(Gear5_Duty_Update@sec_cnt+1)^(0+128)
  4041                           
  4042                           ;main.c: 571: cur_percent = 85;
  4043  04CB  1283               	bcf	3,5	;RP0=0, select bank0
  4044  04CC  00B5               	movwf	Gear5_Duty_Update@cur_percent
  4045  04CD  0008               	return
  4046  04CE                     l5520:	
  4047                           
  4048                           ;main.c: 573: }
  4049                           ;main.c: 574: ms_sub++;
  4050  04CE  1683               	bsf	3,5	;RP0=1, select bank1
  4051  04CF  0A92               	incf	Gear5_Duty_Update@ms_sub^(0+128),f
  4052  04D0  1903               	btfsc	3,2
  4053  04D1  0A93               	incf	(Gear5_Duty_Update@ms_sub+1)^(0+128),f
  4054                           
  4055                           ;main.c: 575: if(ms_sub < 1000)
  4056  04D2  3003               	movlw	3
  4057  04D3  0213               	subwf	(Gear5_Duty_Update@ms_sub+1)^(0+128),w
  4058  04D4  30E8               	movlw	232
  4059  04D5  1903               	btfsc	3,2
  4060  04D6  0212               	subwf	Gear5_Duty_Update@ms_sub^(0+128),w
  4061  04D7  1C03               	btfss	3,0
  4062  04D8  0008               	return
  4063                           
  4064                           ;main.c: 577: ms_sub = 0;
  4065  04D9  0192               	clrf	Gear5_Duty_Update@ms_sub^(0+128)
  4066  04DA  0193               	clrf	(Gear5_Duty_Update@ms_sub+1)^(0+128)
  4067                           
  4068                           ;main.c: 578: sec_cnt++;
  4069  04DB  0A90               	incf	Gear5_Duty_Update@sec_cnt^(0+128),f
  4070  04DC  1903               	btfsc	3,2
  4071  04DD  0A91               	incf	(Gear5_Duty_Update@sec_cnt+1)^(0+128),f
  4072                           
  4073                           ;main.c: 579: if(cur_percent == 85)
  4074  04DE  3055               	movlw	85
  4075  04DF  1283               	bcf	3,5	;RP0=0, select bank0
  4076  04E0  0635               	xorwf	Gear5_Duty_Update@cur_percent,w
  4077  04E1  1D03               	btfss	3,2
  4078  04E2  2CF1               	goto	l5538
  4079                           
  4080                           ;main.c: 580: {
  4081                           ;main.c: 581: if(sec_cnt >= 600)
  4082  04E3  3002               	movlw	2
  4083  04E4  1683               	bsf	3,5	;RP0=1, select bank1
  4084  04E5  0211               	subwf	(Gear5_Duty_Update@sec_cnt+1)^(0+128),w
  4085  04E6  3058               	movlw	88
  4086  04E7  1903               	btfsc	3,2
  4087  04E8  0210               	subwf	Gear5_Duty_Update@sec_cnt^(0+128),w
  4088  04E9  1C03               	btfss	3,0
  4089  04EA  2D06               	goto	l5550
  4090                           
  4091                           ;main.c: 582: {
  4092                           ;main.c: 583: sec_cnt = 0;
  4093  04EB  0190               	clrf	Gear5_Duty_Update@sec_cnt^(0+128)
  4094  04EC  0191               	clrf	(Gear5_Duty_Update@sec_cnt+1)^(0+128)
  4095  04ED                     l5536:	
  4096                           
  4097                           ;main.c: 584: cur_percent -= 3;
  4098  04ED  3003               	movlw	3
  4099  04EE  1283               	bcf	3,5	;RP0=0, select bank0
  4100  04EF  02B5               	subwf	Gear5_Duty_Update@cur_percent,f
  4101  04F0  2D06               	goto	l5550
  4102  04F1                     l5538:	
  4103                           
  4104                           ;main.c: 587: else if(cur_percent > 76)
  4105  04F1  304D               	movlw	77
  4106  04F2  0235               	subwf	Gear5_Duty_Update@cur_percent,w
  4107  04F3  1C03               	btfss	3,0
  4108  04F4  2D06               	goto	l5550
  4109                           
  4110                           ;main.c: 588: {
  4111                           ;main.c: 589: if(sec_cnt >= 60)
  4112  04F5  3000               	movlw	0
  4113  04F6  1683               	bsf	3,5	;RP0=1, select bank1
  4114  04F7  0211               	subwf	(Gear5_Duty_Update@sec_cnt+1)^(0+128),w
  4115  04F8  303C               	movlw	60
  4116  04F9  1903               	btfsc	3,2
  4117  04FA  0210               	subwf	Gear5_Duty_Update@sec_cnt^(0+128),w
  4118  04FB  1C03               	btfss	3,0
  4119  04FC  2D06               	goto	l5550
  4120  04FD  304F               	movlw	79
  4121                           
  4122                           ;main.c: 590: {
  4123                           ;main.c: 591: sec_cnt = 0;
  4124  04FE  0190               	clrf	Gear5_Duty_Update@sec_cnt^(0+128)
  4125  04FF  0191               	clrf	(Gear5_Duty_Update@sec_cnt+1)^(0+128)
  4126                           
  4127                           ;main.c: 592: if(cur_percent >= 79)
  4128  0500  1283               	bcf	3,5	;RP0=0, select bank0
  4129  0501  0235               	subwf	Gear5_Duty_Update@cur_percent,w
  4130  0502  1803               	btfsc	3,0
  4131  0503  2CED               	goto	l5536
  4132                           
  4133                           ;main.c: 594: else
  4134                           ;main.c: 595: cur_percent = 76;
  4135  0504  304C               	movlw	76
  4136  0505  00B5               	movwf	Gear5_Duty_Update@cur_percent
  4137  0506                     l5550:	
  4138                           
  4139                           ;main.c: 596: }
  4140                           ;main.c: 597: }
  4141                           ;main.c: 599: g_target_pwm = (unsigned char)(((unsigned int)cur_percent * 124u + 50u) / 
      +                          100u);
  4142  0506  3064               	movlw	100
  4143  0507  1683               	bsf	3,5	;RP0=1, select bank1
  4144  0508  00BC               	movwf	___lwdiv@divisor^(0+128)
  4145  0509  01BD               	clrf	(___lwdiv@divisor+1)^(0+128)
  4146  050A  1283               	bcf	3,5	;RP0=0, select bank0
  4147  050B  0835               	movf	Gear5_Duty_Update@cur_percent,w
  4148  050C  00AF               	movwf	___wmul@multiplier
  4149  050D  307C               	movlw	124
  4150  050E  01B0               	clrf	___wmul@multiplier+1
  4151  050F  00B1               	movwf	___wmul@multiplicand
  4152  0510  01B2               	clrf	___wmul@multiplicand+1
  4153  0511  273E               	fcall	___wmul
  4154  0512  082F               	movf	?___wmul,w
  4155  0513  3E32               	addlw	50
  4156  0514  1683               	bsf	3,5	;RP0=1, select bank1
  4157  0515  00BE               	movwf	___lwdiv@dividend^(0+128)
  4158  0516  1283               	bcf	3,5	;RP0=0, select bank0
  4159  0517  0830               	movf	?___wmul+1,w
  4160  0518  1803               	btfsc	3,0
  4161  0519  3E01               	addlw	1
  4162  051A  3E00               	addlw	0
  4163  051B  1683               	bsf	3,5	;RP0=1, select bank1
  4164  051C  00BF               	movwf	(___lwdiv@dividend+1)^(0+128)
  4165  051D  2677               	fcall	___lwdiv
  4166  051E  083C               	movf	?___lwdiv^(0+128),w
  4167  051F  1283               	bcf	3,5	;RP0=0, select bank0
  4168  0520  009F               	movwf	_g_target_pwm
  4169  0521  0008               	return
  4170  0522                     __end_of_Gear5_Duty_Update:	
  4171                           
  4172                           	psect	text20
  4173  073E                     __ptext20:	
  4174  073E                     ___wmul:	
  4175 ;; *************** function ___wmul *****************
  4176 ;; Defined at:
  4177 ;;		line 15 in file "D:\оʥ\HCIDE_V3.0.17.8S\picc_compiler\sources\common\Umul16.c"
  4178 ;; Parameters:    Size  Location     Type
  4179 ;;  multiplier      2    7[BANK0 ] unsigned int 
  4180 ;;  multiplicand    2    9[BANK0 ] unsigned int 
  4181 ;; Auto vars:     Size  Location     Type
  4182 ;;  product         2   11[BANK0 ] unsigned int 
  4183 ;; Return value:  Size  Location     Type
  4184 ;;                  2    7[BANK0 ] unsigned int 
  4185 ;; Registers used:
  4186 ;;		wreg, status,2, status,0
  4187 ;; Tracked objects:
  4188 ;;		On entry : 100/0
  4189 ;;		On exit  : 100/0
  4190 ;;		Unchanged: 0/0
  4191 ;; Data sizes:     COMMON   BANK0   BANK1
  4192 ;;      Params:         0       4       0
  4193 ;;      Locals:         0       2       0
  4194 ;;      Temps:          0       0       0
  4195 ;;      Totals:         0       6       0
  4196 ;;Total ram usage:        6 bytes
  4197 ;; Hardware stack levels used:    1
  4198 ;; Hardware stack levels required when called:    3
  4199 ;; This function calls:
  4200 ;;		Nothing
  4201 ;; This function is called by:
  4202 ;;		_Gear5_Duty_Update
  4203 ;; This function uses a non-reentrant model
  4204 ;;
  4205                           ;psect for function ___wmul
  4206                           
  4207                           
  4208                           ;incstack = 0
  4209                           ; Regs used in ___wmul: [wreg+status,2+status,0]
  4210  073E  01B3               	clrf	___wmul@product
  4211  073F  01B4               	clrf	___wmul@product+1
  4212  0740                     l3938:	
  4213  0740  1C2F               	btfss	___wmul@multiplier,0
  4214  0741  2F48               	goto	l3942
  4215  0742  0831               	movf	___wmul@multiplicand,w
  4216  0743  07B3               	addwf	___wmul@product,f
  4217  0744  1803               	btfsc	3,0
  4218  0745  0AB4               	incf	___wmul@product+1,f
  4219  0746  0832               	movf	___wmul@multiplicand+1,w
  4220  0747  07B4               	addwf	___wmul@product+1,f
  4221  0748                     l3942:	
  4222  0748  1003               	bcf	3,0
  4223  0749  0DB1               	rlf	___wmul@multiplicand,f
  4224  074A  0DB2               	rlf	___wmul@multiplicand+1,f
  4225  074B  1003               	bcf	3,0
  4226  074C  0CB0               	rrf	___wmul@multiplier+1,f
  4227  074D  0CAF               	rrf	___wmul@multiplier,f
  4228  074E  082F               	movf	___wmul@multiplier,w
  4229  074F  0430               	iorwf	___wmul@multiplier+1,w
  4230  0750  1D03               	btfss	3,2
  4231  0751  2F40               	goto	l3938
  4232  0752  0834               	movf	___wmul@product+1,w
  4233  0753  00B0               	movwf	?___wmul+1
  4234  0754  0833               	movf	___wmul@product,w
  4235  0755  00AF               	movwf	?___wmul
  4236  0756  0008               	return
  4237  0757                     __end_of___wmul:	
  4238                           
  4239                           	psect	text21
  4240  0677                     __ptext21:	
  4241  0677                     ___lwdiv:	
  4242 ;; *************** function ___lwdiv *****************
  4243 ;; Defined at:
  4244 ;;		line 6 in file "D:\оʥ\HCIDE_V3.0.17.8S\picc_compiler\sources\common\lwdiv.c"
  4245 ;; Parameters:    Size  Location     Type
  4246 ;;  divisor         2    0[BANK1 ] unsigned int 
  4247 ;;  dividend        2    2[BANK1 ] unsigned int 
  4248 ;; Auto vars:     Size  Location     Type
  4249 ;;  quotient        2    5[BANK1 ] unsigned int 
  4250 ;;  counter         1    4[BANK1 ] unsigned char 
  4251 ;; Return value:  Size  Location     Type
  4252 ;;                  2    0[BANK1 ] unsigned int 
  4253 ;; Registers used:
  4254 ;;		wreg, status,2, status,0
  4255 ;; Tracked objects:
  4256 ;;		On entry : 100/100
  4257 ;;		On exit  : 100/100
  4258 ;;		Unchanged: 0/0
  4259 ;; Data sizes:     COMMON   BANK0   BANK1
  4260 ;;      Params:         0       0       4
  4261 ;;      Locals:         0       0       3
  4262 ;;      Temps:          0       0       0
  4263 ;;      Totals:         0       0       7
  4264 ;;Total ram usage:        7 bytes
  4265 ;; Hardware stack levels used:    1
  4266 ;; Hardware stack levels required when called:    3
  4267 ;; This function calls:
  4268 ;;		Nothing
  4269 ;; This function is called by:
  4270 ;;		_Gear5_Duty_Update
  4271 ;; This function uses a non-reentrant model
  4272 ;;
  4273                           ;psect for function ___lwdiv
  4274                           
  4275                           
  4276                           ;incstack = 0
  4277                           ; Regs used in ___lwdiv: [wreg+status,2+status,0]
  4278  0677  01C1               	clrf	___lwdiv@quotient^(0+128)
  4279  0678  01C2               	clrf	(___lwdiv@quotient+1)^(0+128)
  4280  0679  083C               	movf	___lwdiv@divisor^(0+128),w
  4281  067A  043D               	iorwf	(___lwdiv@divisor+1)^(0+128),w
  4282  067B  1903               	btfsc	3,2
  4283  067C  2E9C               	goto	l5256
  4284  067D  01C0               	clrf	___lwdiv@counter^(0+128)
  4285  067E                     L9:	
  4286  067E  0AC0               	incf	___lwdiv@counter^(0+128),f
  4287  067F  1BBD               	btfsc	(___lwdiv@divisor+1)^(0+128),7
  4288  0680  2E85               	goto	l5244
  4289  0681  1003               	bcf	3,0
  4290  0682  0DBC               	rlf	___lwdiv@divisor^(0+128),f
  4291  0683  0DBD               	rlf	(___lwdiv@divisor+1)^(0+128),f
  4292  0684  2E7E               	goto	L9
  4293  0685                     l5244:	
  4294  0685  1003               	bcf	3,0
  4295  0686  0DC1               	rlf	___lwdiv@quotient^(0+128),f
  4296  0687  0DC2               	rlf	(___lwdiv@quotient+1)^(0+128),f
  4297  0688  083D               	movf	(___lwdiv@divisor+1)^(0+128),w
  4298  0689  023F               	subwf	(___lwdiv@dividend+1)^(0+128),w
  4299  068A  1D03               	btfss	3,2
  4300  068B  2E8E               	goto	u4995
  4301  068C  083C               	movf	___lwdiv@divisor^(0+128),w
  4302  068D  023E               	subwf	___lwdiv@dividend^(0+128),w
  4303  068E                     u4995:	
  4304  068E  1C03               	btfss	3,0
  4305  068F  2E98               	goto	L10
  4306  0690  083C               	movf	___lwdiv@divisor^(0+128),w
  4307  0691  02BE               	subwf	___lwdiv@dividend^(0+128),f
  4308  0692  083D               	movf	(___lwdiv@divisor+1)^(0+128),w
  4309  0693  1C03               	btfss	3,0
  4310  0694  03BF               	decf	(___lwdiv@dividend+1)^(0+128),f
  4311  0695  02BF               	subwf	(___lwdiv@dividend+1)^(0+128),f
  4312  0696  1441               	bsf	___lwdiv@quotient^(0+128),0
  4313  0697  1003               	bcf	3,0
  4314  0698                     L10:	
  4315  0698  0CBD               	rrf	(___lwdiv@divisor+1)^(0+128),f
  4316  0699  0CBC               	rrf	___lwdiv@divisor^(0+128),f
  4317  069A  0BC0               	decfsz	___lwdiv@counter^(0+128),f
  4318  069B  2E85               	goto	l5244
  4319  069C                     l5256:	
  4320  069C  0842               	movf	(___lwdiv@quotient+1)^(0+128),w
  4321  069D  00BD               	movwf	(?___lwdiv+1)^(0+128)
  4322  069E  0841               	movf	___lwdiv@quotient^(0+128),w
  4323  069F  00BC               	movwf	?___lwdiv^(0+128)
  4324  06A0  0008               	return
  4325  06A1                     __end_of___lwdiv:	
  4326                           
  4327                           	psect	text22
  4328  07A3                     __ptext22:	
  4329  07A3                     _Delay_Init:	
  4330 ;; *************** function _Delay_Init *****************
  4331 ;; Defined at:
  4332 ;;		line 163 in file "main.c"
  4333 ;; Parameters:    Size  Location     Type
  4334 ;;  Delay_Duty      2    7[BANK0 ] unsigned int 
  4335 ;; Auto vars:     Size  Location     Type
  4336 ;;  i               2    9[BANK0 ] unsigned int 
  4337 ;; Return value:  Size  Location     Type
  4338 ;;                  1    wreg      void 
  4339 ;; Registers used:
  4340 ;;		wreg, status,2, status,0
  4341 ;; Tracked objects:
  4342 ;;		On entry : 100/0
  4343 ;;		On exit  : 100/0
  4344 ;;		Unchanged: 0/0
  4345 ;; Data sizes:     COMMON   BANK0   BANK1
  4346 ;;      Params:         0       2       0
  4347 ;;      Locals:         0       2       0
  4348 ;;      Temps:          0       0       0
  4349 ;;      Totals:         0       4       0
  4350 ;;Total ram usage:        4 bytes
  4351 ;; Hardware stack levels used:    1
  4352 ;; Hardware stack levels required when called:    3
  4353 ;; This function calls:
  4354 ;;		Nothing
  4355 ;; This function is called by:
  4356 ;;		_main
  4357 ;; This function uses a non-reentrant model
  4358 ;;
  4359                           ;psect for function _Delay_Init
  4360                           
  4361                           
  4362                           ;main.c: 165: unsigned int i;
  4363                           ;main.c: 167: for(i = 0; i <= Delay_Duty; i ++)
  4364                           ;incstack = 0
  4365                           ; Regs used in _Delay_Init: [wreg+status,2+status,0]
  4366  07A3  01B1               	clrf	Delay_Init@i
  4367  07A4  01B2               	clrf	Delay_Init@i+1
  4368  07A5                     l3998:	
  4369  07A5  0832               	movf	Delay_Init@i+1,w
  4370  07A6  0230               	subwf	Delay_Init@Delay_Duty+1,w
  4371  07A7  1D03               	btfss	3,2
  4372  07A8  2FAB               	goto	u2835
  4373  07A9  0831               	movf	Delay_Init@i,w
  4374  07AA  022F               	subwf	Delay_Init@Delay_Duty,w
  4375  07AB                     u2835:	
  4376  07AB  1C03               	btfss	3,0
  4377  07AC  0008               	return
  4378  07AD  0064               	clrwdt	;# 
  4379  07AE  1283               	bcf	3,5	;RP0=0, select bank0
  4380  07AF  0AB1               	incf	Delay_Init@i,f
  4381  07B0  1903               	btfsc	3,2
  4382  07B1  0AB2               	incf	Delay_Init@i+1,f
  4383  07B2  2FA5               	goto	l3998
  4384  07B3                     __end_of_Delay_Init:	
  4385                           
  4386                           	psect	text23
  4387  06C6                     __ptext23:	
  4388  06C6                     _Comm_Process:	
  4389 ;; *************** function _Comm_Process *****************
  4390 ;; Defined at:
  4391 ;;		line 1331 in file "main.c"
  4392 ;; Parameters:    Size  Location     Type
  4393 ;;		None
  4394 ;; Auto vars:     Size  Location     Type
  4395 ;;  rx_ok           1   11[BANK0 ] unsigned char 
  4396 ;; Return value:  Size  Location     Type
  4397 ;;                  1    wreg      void 
  4398 ;; Registers used:
  4399 ;;		wreg, status,2, status,0, pclath, cstack
  4400 ;; Tracked objects:
  4401 ;;		On entry : 0/0
  4402 ;;		On exit  : 0/0
  4403 ;;		Unchanged: 0/0
  4404 ;; Data sizes:     COMMON   BANK0   BANK1
  4405 ;;      Params:         0       0       0
  4406 ;;      Locals:         0       1       0
  4407 ;;      Temps:          0       0       0
  4408 ;;      Totals:         0       1       0
  4409 ;;Total ram usage:        1 bytes
  4410 ;; Hardware stack levels used:    1
  4411 ;; Hardware stack levels required when called:    4
  4412 ;; This function calls:
  4413 ;;		_comm_parse_rx
  4414 ;; This function is called by:
  4415 ;;		_main
  4416 ;; This function uses a non-reentrant model
  4417 ;;
  4418                           ;psect for function _Comm_Process
  4419                           
  4420                           
  4421                           ;main.c: 1333: unsigned char rx_ok;
  4422                           ;main.c: 1335: if(kcomm_tx_done == 1)
  4423                           ;incstack = 0
  4424                           ; Regs used in _Comm_Process: [wreg+status,2+status,0+pclath+cstack]
  4425  06C6  1683               	bsf	3,5	;RP0=1, select bank1
  4426  06C7  0B35               	decfsz	_kcomm_tx_done^(0+128),w
  4427  06C8  2ECA               	goto	l4888
  4428                           
  4429                           ;main.c: 1336: {
  4430                           ;main.c: 1337: kcomm_tx_done = 0;
  4431  06C9  01B5               	clrf	_kcomm_tx_done^(0+128)
  4432  06CA                     l4888:	
  4433                           
  4434                           ;main.c: 1338: }
  4435                           ;main.c: 1340: if(kcomm_rx_done == 1)
  4436  06CA  1283               	bcf	3,5	;RP0=0, select bank0
  4437  06CB  0B25               	decfsz	_kcomm_rx_done,w
  4438  06CC  2EE4               	goto	l4906
  4439                           
  4440                           ;main.c: 1341: {
  4441                           ;main.c: 1342: kcomm_rx_done = 0;
  4442  06CD  01A5               	clrf	_kcomm_rx_done
  4443                           
  4444                           ;main.c: 1343: rx_ok = comm_parse_rx(kcomm_rx_buf);
  4445  06CE  1683               	bsf	3,5	;RP0=1, select bank1
  4446  06CF  0839               	movf	_kcomm_rx_buf^(0+128),w
  4447  06D0  2709               	fcall	_comm_parse_rx
  4448  06D1  00B3               	movwf	Comm_Process@rx_ok
  4449                           
  4450                           ;main.c: 1344: if(rx_ok)
  4451  06D2  0833               	movf	Comm_Process@rx_ok,w
  4452  06D3  1903               	btfsc	3,2
  4453  06D4  2ED9               	goto	l4898
  4454                           
  4455                           ;main.c: 1345: g_slave_alive_ms = 200;
  4456  06D5  30C8               	movlw	200
  4457  06D6  1683               	bsf	3,5	;RP0=1, select bank1
  4458  06D7  0098               	movwf	_g_slave_alive_ms^(0+128)
  4459  06D8  0199               	clrf	(_g_slave_alive_ms+1)^(0+128)
  4460  06D9                     l4898:	
  4461                           
  4462                           ;main.c: 1346: if(DIY_Flag2.OnrBit.b2 || DIY_Flag2.OnrBit.b3 || DIY_Flag2.OnrBit.b4)
  4463  06D9  1283               	bcf	3,5	;RP0=0, select bank0
  4464  06DA  1D21               	btfss	_DIY_Flag2,2
  4465  06DB  19A1               	btfsc	_DIY_Flag2,3
  4466  06DC  2EDF               	goto	l4904
  4467  06DD  1E21               	btfss	_DIY_Flag2,4
  4468  06DE  0008               	return
  4469  06DF                     l4904:	
  4470                           
  4471                           ;main.c: 1347: g_slave_alive_ms = 200;
  4472  06DF  30C8               	movlw	200
  4473  06E0  1683               	bsf	3,5	;RP0=1, select bank1
  4474  06E1  0098               	movwf	_g_slave_alive_ms^(0+128)
  4475  06E2  0199               	clrf	(_g_slave_alive_ms+1)^(0+128)
  4476  06E3  0008               	return
  4477  06E4                     l4906:	
  4478                           
  4479                           ;main.c: 1349: else if(kcomm_rx_done == 0xFF)
  4480  06E4  0F25               	incfsz	_kcomm_rx_done,w
  4481  06E5  0008               	return
  4482                           
  4483                           ;main.c: 1350: {
  4484                           ;main.c: 1351: kcomm_rx_done = 0;
  4485  06E6  01A5               	clrf	_kcomm_rx_done
  4486  06E7  0008               	return
  4487  06E8                     __end_of_Comm_Process:	
  4488                           
  4489                           	psect	text24
  4490  0709                     __ptext24:	
  4491  0709                     _comm_parse_rx:	
  4492 ;; *************** function _comm_parse_rx *****************
  4493 ;; Defined at:
  4494 ;;		line 1051 in file "main.c"
  4495 ;; Parameters:    Size  Location     Type
  4496 ;;  raw             1    wreg     unsigned char 
  4497 ;; Auto vars:     Size  Location     Type
  4498 ;;  raw             1    9[BANK0 ] unsigned char 
  4499 ;;  lo              1   10[BANK0 ] unsigned char 
  4500 ;;  hi              1    8[BANK0 ] unsigned char 
  4501 ;;  check           1    7[BANK0 ] unsigned char 
  4502 ;; Return value:  Size  Location     Type
  4503 ;;                  1    wreg      unsigned char 
  4504 ;; Registers used:
  4505 ;;		wreg, status,2, status,0
  4506 ;; Tracked objects:
  4507 ;;		On entry : 100/100
  4508 ;;		On exit  : 100/0
  4509 ;;		Unchanged: 0/0
  4510 ;; Data sizes:     COMMON   BANK0   BANK1
  4511 ;;      Params:         0       0       0
  4512 ;;      Locals:         0       4       0
  4513 ;;      Temps:          0       0       0
  4514 ;;      Totals:         0       4       0
  4515 ;;Total ram usage:        4 bytes
  4516 ;; Hardware stack levels used:    1
  4517 ;; Hardware stack levels required when called:    3
  4518 ;; This function calls:
  4519 ;;		Nothing
  4520 ;; This function is called by:
  4521 ;;		_Comm_Process
  4522 ;; This function uses a non-reentrant model
  4523 ;;
  4524                           ;psect for function _comm_parse_rx
  4525                           
  4526                           
  4527                           ;incstack = 0
  4528                           ; Regs used in _comm_parse_rx: [wreg+status,2+status,0]
  4529                           ;comm_parse_rx@raw stored from wreg
  4530  0709  1283               	bcf	3,5	;RP0=0, select bank0
  4531  070A  00B1               	movwf	comm_parse_rx@raw
  4532                           
  4533                           ;main.c: 1053: unsigned char lo;
  4534                           ;main.c: 1054: unsigned char hi;
  4535                           ;main.c: 1055: unsigned char check;
  4536                           ;main.c: 1057: lo = raw & 0x0F;
  4537  070B  00B2               	movwf	comm_parse_rx@lo
  4538  070C  300F               	movlw	15
  4539  070D  05B2               	andwf	comm_parse_rx@lo,f
  4540                           
  4541                           ;main.c: 1058: hi = (raw >> 4) & 0x0F;
  4542  070E  0E31               	swapf	comm_parse_rx@raw,w
  4543  070F  390F               	andlw	15
  4544  0710  00B0               	movwf	comm_parse_rx@hi
  4545  0711  300F               	movlw	15
  4546  0712  05B0               	andwf	comm_parse_rx@hi,f
  4547                           
  4548                           ;main.c: 1059: check = lo + hi;
  4549  0713  0830               	movf	comm_parse_rx@hi,w
  4550  0714  0732               	addwf	comm_parse_rx@lo,w
  4551  0715  00AF               	movwf	comm_parse_rx@check
  4552                           
  4553                           ;main.c: 1061: if(check != 0x0F)
  4554  0716  3A0F               	xorlw	15
  4555  0717  1D03               	btfss	3,2
  4556                           
  4557                           ;main.c: 1062: return 0;
  4558  0718  3400               	retlw	0
  4559                           
  4560                           ;main.c: 1065: if(lo & 0x04)
  4561  0719  1D32               	btfss	comm_parse_rx@lo,2
  4562  071A  2F1D               	goto	l1300
  4563                           
  4564                           ;main.c: 1066: DIY_Flag2.OnrBit.b2 = 1;
  4565  071B  1521               	bsf	_DIY_Flag2,2
  4566  071C  2F1E               	goto	l1301
  4567  071D                     l1300:	
  4568                           
  4569                           ;main.c: 1067: else
  4570                           ;main.c: 1068: DIY_Flag2.OnrBit.b2 = 0;
  4571  071D  1121               	bcf	_DIY_Flag2,2
  4572  071E                     l1301:	
  4573                           
  4574                           ;main.c: 1070: if(lo & 0x01)
  4575  071E  1C32               	btfss	comm_parse_rx@lo,0
  4576  071F  2F22               	goto	l1302
  4577                           
  4578                           ;main.c: 1071: DIY_Flag2.OnrBit.b3 = 1;
  4579  0720  15A1               	bsf	_DIY_Flag2,3
  4580  0721  3401               	retlw	1
  4581  0722                     l1302:	
  4582                           
  4583                           ;main.c: 1072: else
  4584                           ;main.c: 1073: DIY_Flag2.OnrBit.b3 = 0;
  4585  0722  11A1               	bcf	_DIY_Flag2,3
  4586                           
  4587                           ;main.c: 1075: return 1;
  4588  0723  3401               	retlw	1
  4589  0724                     __end_of_comm_parse_rx:	
  4590                           
  4591                           	psect	text25
  4592  0572                     __ptext25:	
  4593  0572                     _Timer1_Isr:	
  4594 ;; *************** function _Timer1_Isr *****************
  4595 ;; Defined at:
  4596 ;;		line 1480 in file "main.c"
  4597 ;; Parameters:    Size  Location     Type
  4598 ;;		None
  4599 ;; Auto vars:     Size  Location     Type
  4600 ;;		None
  4601 ;; Return value:  Size  Location     Type
  4602 ;;                  1    wreg      void 
  4603 ;; Registers used:
  4604 ;;		wreg, status,2, status,0, pclath, cstack
  4605 ;; Tracked objects:
  4606 ;;		On entry : 0/0
  4607 ;;		On exit  : 100/0
  4608 ;;		Unchanged: 0/0
  4609 ;; Data sizes:     COMMON   BANK0   BANK1
  4610 ;;      Params:         0       0       0
  4611 ;;      Locals:         0       0       0
  4612 ;;      Temps:          0       2       0
  4613 ;;      Totals:         0       2       0
  4614 ;;Total ram usage:        2 bytes
  4615 ;; Hardware stack levels used:    1
  4616 ;; Hardware stack levels required when called:    2
  4617 ;; This function calls:
  4618 ;;		_Kcomm_ISR
  4619 ;; This function is called by:
  4620 ;;		Interrupt level 1
  4621 ;; This function uses a non-reentrant model
  4622 ;;
  4623                           ;psect for function _Timer1_Isr
  4624                           
  4625                           
  4626                           ;main.c: 1482: static unsigned char timer_ms = 0;
  4627                           ;main.c: 1483: static unsigned char pwm_cnt = 0;
  4628                           ;main.c: 1485: if(T0IF == 1)
  4629  0572  1D8E               	btfss	14,3	;volatile
  4630  0573  2D80               	goto	i1l4994
  4631                           
  4632                           ;main.c: 1486: {
  4633                           ;main.c: 1487: T0IF = 0;
  4634  0574  118E               	bcf	14,3	;volatile
  4635                           
  4636                           ;main.c: 1488: T0 = 168;
  4637  0575  30A8               	movlw	168
  4638  0576  0081               	movwf	1	;volatile
  4639  0577  3014               	movlw	20
  4640                           
  4641                           ;main.c: 1489: timer_ms++;
  4642  0578  1683               	bsf	3,5	;RP0=1, select bank1
  4643  0579  0AA7               	incf	Timer1_Isr@timer_ms^(0+128),f
  4644                           
  4645                           ;main.c: 1491: if(timer_ms >= 20)
  4646  057A  0227               	subwf	Timer1_Isr@timer_ms^(0+128),w
  4647  057B  1C03               	btfss	3,0
  4648  057C  2D80               	goto	i1l4994
  4649                           
  4650                           ;main.c: 1492: {
  4651                           ;main.c: 1493: timer_ms = 0;
  4652  057D  01A7               	clrf	Timer1_Isr@timer_ms^(0+128)
  4653                           
  4654                           ;main.c: 1494: DIY_Flag1.OnrBit.b0 = 1;
  4655  057E  1283               	bcf	3,5	;RP0=0, select bank0
  4656  057F  1422               	bsf	_DIY_Flag1,0
  4657  0580                     i1l4994:	
  4658                           
  4659                           ;main.c: 1495: }
  4660                           ;main.c: 1496: }
  4661                           ;main.c: 1498: if(DIY_Flag2.OnrBit.b0 && g_gear == 6 && !DIY_Flag2.OnrBit.b2 && !DIY_Fla
      +                          g2.OnrBit.b3)
  4662  0580  1283               	bcf	3,5	;RP0=0, select bank0
  4663  0581  1C21               	btfss	_DIY_Flag2,0
  4664  0582  2D98               	goto	i1l5012
  4665  0583  3006               	movlw	6
  4666  0584  0620               	xorwf	_g_gear,w
  4667  0585  1903               	btfsc	3,2
  4668  0586  1921               	btfsc	_DIY_Flag2,2
  4669  0587  2D98               	goto	i1l5012
  4670  0588  19A1               	btfsc	_DIY_Flag2,3
  4671  0589  2D98               	goto	i1l5012
  4672  058A  3032               	movlw	50
  4673                           
  4674                           ;main.c: 1499: {
  4675                           ;main.c: 1500: pwm_cnt++;
  4676  058B  1683               	bsf	3,5	;RP0=1, select bank1
  4677  058C  0AA6               	incf	Timer1_Isr@pwm_cnt^(0+128),f
  4678                           
  4679                           ;main.c: 1501: if(pwm_cnt >= 50) pwm_cnt = 0;
  4680  058D  0226               	subwf	Timer1_Isr@pwm_cnt^(0+128),w
  4681  058E  1803               	btfsc	3,0
  4682  058F  01A6               	clrf	Timer1_Isr@pwm_cnt^(0+128)
  4683                           
  4684                           ;main.c: 1503: if(pwm_cnt < g_overclock_pwm)
  4685  0590  0833               	movf	_g_overclock_pwm^(0+128),w
  4686  0591  0226               	subwf	Timer1_Isr@pwm_cnt^(0+128),w
  4687                           
  4688                           ;main.c: 1504: {
  4689                           ;main.c: 1505: (PORTB1 = 0); (PORTB0 = 0); (PORTA7 = 0); (PORTA6 = 0); (PORTA4 = 0);
  4690  0592  1283               	bcf	3,5	;RP0=0, select bank0
  4691  0593  1803               	btfsc	3,0
  4692  0594  2D97               	goto	L11
  4693  0595  25AB               	fcall	PL6	;call to abstracted procedure
  4694                           
  4695                           ;main.c: 1506: }
  4696  0596  2D98               	goto	i1l5012
  4697  0597                     L11:	
  4698                           
  4699                           ;main.c: 1507: else
  4700                           ;main.c: 1508: {
  4701                           ;main.c: 1509: (PORTB1 = 1); (PORTB0 = 1); (PORTA7 = 1); (PORTA6 = 1); (PORTA4 = 1);
  4702  0597  22D0               	fcall	PL2	;call to abstracted procedure
  4703  0598                     i1l5012:	
  4704                           
  4705                           ;main.c: 1510: }
  4706                           ;main.c: 1511: }
  4707                           ;main.c: 1513: Kcomm_ISR();
  4708  0598  2018               	fcall	_Kcomm_ISR
  4709                           
  4710                           ;main.c: 1514: T1IF = 0;
  4711  0599  1283               	bcf	3,5	;RP0=0, select bank0
  4712  059A  104B               	bcf	75,0	;volatile
  4713  059B  082E               	movf	??_Timer1_Isr+1,w
  4714  059C  008A               	movwf	10
  4715  059D  18AD               	btfsc	??_Timer1_Isr^0,1
  4716  059E  2DA4               	goto	REV_BANK1
  4717  059F  0E2D               	swapf	??_Timer1_Isr^0,w
  4718  05A0  0083               	movwf	3
  4719  05A1  0EBE               	swapf	62,f
  4720  05A2  0E3E               	swapf	62,w
  4721  05A3  0009               	retfie
  4722  05A4                     REV_BANK1:	
  4723  05A4  0E2D               	swapf	??_Timer1_Isr^0,w
  4724  05A5  0083               	movwf	3
  4725  05A6  1283               	bcf	3,5
  4726  05A7  0EBE               	swapf	62,f
  4727  05A8  0E3E               	swapf	62,w
  4728  05A9  1683               	bsf	3,5
  4729  05AA  0009               	retfie
  4730  05AB                     __end_of_Timer1_Isr:	
  4731  05AB                     PL6:	
  4732  05AB  1086               	bcf	6,1	;volatile
  4733  05AC  1006               	bcf	6,0	;volatile
  4734  05AD  1385               	bcf	5,7	;volatile
  4735  05AE  1305               	bcf	5,6	;volatile
  4736  05AF  1205               	bcf	5,4	;volatile
  4737  05B0  0008               	return
  4738  05B1                     __end_ofPL6:	
  4739                           
  4740                           	psect	intentry
  4741  0008                     __pintentry:	
  4742  0008                     interrupt_function:	
  4743                           ;incstack = 0
  4744                           ; Regs used in _Timer1_Isr: [wreg+status,2+status,0+pclath+cstack]
  4745                           
  4746  003E                     saved_w	set	btemp
  4747  0008  1A83               	btfsc	3,5
  4748  0009  280C               	goto	SAVE_BANK1
  4749  000A  00BE               	movwf	btemp
  4750  000B  280F               	goto	EXIT_BANK_SAVE
  4751  000C                     SAVE_BANK1:	
  4752  000C  1283               	bcf	3,5
  4753  000D  00BE               	movwf	btemp
  4754  000E  1683               	bsf	3,5
  4755  000F                     EXIT_BANK_SAVE:	
  4756  000F  0E03               	swapf	3,w
  4757  0010  1283               	bcf	3,5	;RP0=0, select bank0
  4758  0011  00AD               	movwf	??_Timer1_Isr
  4759  0012  080A               	movf	10,w
  4760  0013  00AE               	movwf	??_Timer1_Isr+1
  4761  0014  2D72               	ljmp	_Timer1_Isr
  4762                           
  4763                           	psect	text26
  4764  0018                     __ptext26:	
  4765  0018                     _Kcomm_ISR:	
  4766 ;; *************** function _Kcomm_ISR *****************
  4767 ;; Defined at:
  4768 ;;		line 1080 in file "main.c"
  4769 ;; Parameters:    Size  Location     Type
  4770 ;;		None
  4771 ;; Auto vars:     Size  Location     Type
  4772 ;;		None
  4773 ;; Return value:  Size  Location     Type
  4774 ;;                  1    wreg      void 
  4775 ;; Registers used:
  4776 ;;		wreg, status,2, status,0, pclath, cstack
  4777 ;; Tracked objects:
  4778 ;;		On entry : 100/0
  4779 ;;		On exit  : 0/0
  4780 ;;		Unchanged: 0/0
  4781 ;; Data sizes:     COMMON   BANK0   BANK1
  4782 ;;      Params:         0       0       0
  4783 ;;      Locals:         0       2       0
  4784 ;;      Temps:          0       0       0
  4785 ;;      Totals:         0       2       0
  4786 ;;Total ram usage:        2 bytes
  4787 ;; Hardware stack levels used:    1
  4788 ;; Hardware stack levels required when called:    1
  4789 ;; This function calls:
  4790 ;;		_comm_pack_tx
  4791 ;; This function is called by:
  4792 ;;		_Timer1_Isr
  4793 ;; This function uses a non-reentrant model
  4794 ;;
  4795                           ;psect for function _Kcomm_ISR
  4796                           
  4797                           
  4798                           ;main.c: 1082: static unsigned char bit_wait_fall;
  4799                           ;main.c: 1083: kcomm_timer++;
  4800                           ;incstack = 0
  4801                           ; Regs used in _Kcomm_ISR: [wreg+status,2+status,0+pclath+cstack]
  4802  0018  0A94               	incf	_kcomm_timer,f
  4803  0019  1903               	btfsc	3,2
  4804  001A  0A95               	incf	_kcomm_timer+1,f
  4805                           
  4806                           ;main.c: 1086: if(kcomm_wakeup)
  4807  001B  0824               	movf	_kcomm_wakeup,w
  4808  001C  1903               	btfsc	3,2
  4809  001D  2840               	goto	i1l4696
  4810                           
  4811                           ;main.c: 1087: {
  4812                           ;main.c: 1088: kcomm_wakeup_cnt++;
  4813  001E  1683               	bsf	3,5	;RP0=1, select bank1
  4814  001F  0AA2               	incf	_kcomm_wakeup_cnt^(0+128),f
  4815  0020  1903               	btfsc	3,2
  4816  0021  0AA3               	incf	(_kcomm_wakeup_cnt+1)^(0+128),f
  4817                           
  4818                           ;main.c: 1089: if(kcomm_wakeup_cnt == 1)
  4819  0022  0322               	decf	_kcomm_wakeup_cnt^(0+128),w
  4820  0023  0423               	iorwf	(_kcomm_wakeup_cnt+1)^(0+128),w
  4821  0024  1D03               	btfss	3,2
  4822  0025  2829               	goto	i1l4686
  4823                           
  4824                           ;main.c: 1090: {
  4825                           ;main.c: 1091: do { TRISB6 = 0; } while(0);
  4826  0026  1283               	bcf	3,5	;RP0=0, select bank0
  4827  0027  1346               	bcf	70,6	;volatile
  4828                           
  4829                           ;main.c: 1092: PORTB6 = 1;
  4830  0028  1706               	bsf	6,6	;volatile
  4831  0029                     i1l4686:	
  4832                           
  4833                           ;main.c: 1093: }
  4834                           ;main.c: 1094: if(kcomm_wakeup_cnt >= 1000u)
  4835  0029  3003               	movlw	3
  4836  002A  1683               	bsf	3,5	;RP0=1, select bank1
  4837  002B  0223               	subwf	(_kcomm_wakeup_cnt+1)^(0+128),w
  4838  002C  30E8               	movlw	232
  4839  002D  1903               	btfsc	3,2
  4840  002E  0222               	subwf	_kcomm_wakeup_cnt^(0+128),w
  4841  002F  1C03               	btfss	3,0
  4842  0030  0008               	return
  4843                           
  4844                           ;main.c: 1095: {
  4845                           ;main.c: 1096: PORTB6 = 0;
  4846  0031  1283               	bcf	3,5	;RP0=0, select bank0
  4847  0032  1306               	bcf	6,6	;volatile
  4848                           
  4849                           ;main.c: 1097: do { TRISB6 = 1; } while(0);
  4850  0033  1746               	bsf	70,6	;volatile
  4851  0034  30C3               	movlw	195
  4852                           
  4853                           ;main.c: 1098: kcomm_wakeup = 0;
  4854  0035  01A4               	clrf	_kcomm_wakeup
  4855                           
  4856                           ;main.c: 1099: kcomm_wakeup_cnt = 0;
  4857  0036  1683               	bsf	3,5	;RP0=1, select bank1
  4858  0037  01A2               	clrf	_kcomm_wakeup_cnt^(0+128)
  4859  0038  01A3               	clrf	(_kcomm_wakeup_cnt+1)^(0+128)
  4860                           
  4861                           ;main.c: 1100: kcomm_low_cnt = 0;
  4862  0039  01A4               	clrf	_kcomm_low_cnt^(0+128)
  4863  003A  01A5               	clrf	(_kcomm_low_cnt+1)^(0+128)
  4864                           
  4865                           ;main.c: 1101: kcomm_state = 0;
  4866  003B  1283               	bcf	3,5	;RP0=0, select bank0
  4867  003C  01A7               	clrf	_kcomm_state
  4868                           
  4869                           ;main.c: 1102: kcomm_cycle = 195;
  4870  003D  1683               	bsf	3,5	;RP0=1, select bank1
  4871  003E  00B7               	movwf	_kcomm_cycle^(0+128)
  4872  003F  0008               	return
  4873  0040                     i1l4696:	
  4874                           
  4875                           ;main.c: 1105: }
  4876                           ;main.c: 1108: if(kcomm_state == 0)
  4877  0040  0827               	movf	_kcomm_state,w
  4878  0041  1D03               	btfss	3,2
  4879  0042  2895               	goto	i1l4754
  4880                           
  4881                           ;main.c: 1109: {
  4882                           ;main.c: 1110: kcomm_cycle++;
  4883  0043  1683               	bsf	3,5	;RP0=1, select bank1
  4884  0044  0AB7               	incf	_kcomm_cycle^(0+128),f
  4885                           
  4886                           ;main.c: 1112: if(!((PORTB & 0x40) ? 1 : 0))
  4887  0045  1283               	bcf	3,5	;RP0=0, select bank0
  4888  0046  1B06               	btfsc	6,6	;volatile
  4889  0047  286F               	goto	i1l4722
  4890                           
  4891                           ;main.c: 1113: {
  4892                           ;main.c: 1114: if(kcomm_low_cnt < 1000)
  4893  0048  3003               	movlw	3
  4894  0049  1683               	bsf	3,5	;RP0=1, select bank1
  4895  004A  0225               	subwf	(_kcomm_low_cnt+1)^(0+128),w
  4896  004B  30E8               	movlw	232
  4897  004C  1903               	btfsc	3,2
  4898  004D  0224               	subwf	_kcomm_low_cnt^(0+128),w
  4899  004E  1803               	btfsc	3,0
  4900  004F  2853               	goto	i1l4706
  4901                           
  4902                           ;main.c: 1115: kcomm_low_cnt++;
  4903  0050  0AA4               	incf	_kcomm_low_cnt^(0+128),f
  4904  0051  1903               	btfsc	3,2
  4905  0052  0AA5               	incf	(_kcomm_low_cnt+1)^(0+128),f
  4906  0053                     i1l4706:	
  4907                           
  4908                           ;main.c: 1118: if(kcomm_low_cnt >= 1000)
  4909  0053  3003               	movlw	3
  4910  0054  0225               	subwf	(_kcomm_low_cnt+1)^(0+128),w
  4911  0055  30E8               	movlw	232
  4912  0056  1903               	btfsc	3,2
  4913  0057  0224               	subwf	_kcomm_low_cnt^(0+128),w
  4914  0058  1C03               	btfss	3,0
  4915  0059  2872               	goto	i1l4724
  4916                           
  4917                           ;main.c: 1119: {
  4918                           ;main.c: 1120: kcomm_low_cnt = 1000;
  4919  005A  30E8               	movlw	232
  4920  005B  00A4               	movwf	_kcomm_low_cnt^(0+128)
  4921  005C  3003               	movlw	3
  4922  005D  00A5               	movwf	(_kcomm_low_cnt^(0+128)+1)
  4923                           
  4924                           ;main.c: 1122: if(kcomm_wakeup == 0)
  4925  005E  1283               	bcf	3,5	;RP0=0, select bank0
  4926  005F  0824               	movf	_kcomm_wakeup,w
  4927  0060  1D03               	btfss	3,2
  4928  0061  2872               	goto	i1l4724
  4929                           
  4930                           ;main.c: 1123: {
  4931                           ;main.c: 1124: if(DIY_Flag2.OnrBit.b0 || DIY_Flag2.OnrBit.b2 || DIY_Flag2.OnrBit.b3 || D
      +                          IY_Flag2.OnrBit.b4)
  4932  0062  1C21               	btfss	_DIY_Flag2,0
  4933  0063  1921               	btfsc	_DIY_Flag2,2
  4934  0064  2869               	goto	i1l1323
  4935  0065  19A1               	btfsc	_DIY_Flag2,3
  4936  0066  2869               	goto	i1l1323
  4937  0067  1E21               	btfss	_DIY_Flag2,4
  4938  0068  2872               	goto	i1l4724
  4939  0069                     i1l1323:	
  4940                           
  4941                           ;main.c: 1125: {
  4942                           ;main.c: 1126: kcomm_wakeup = 1;
  4943  0069  01A4               	clrf	_kcomm_wakeup
  4944  006A  0AA4               	incf	_kcomm_wakeup,f
  4945                           
  4946                           ;main.c: 1127: kcomm_wakeup_cnt = 0;
  4947  006B  1683               	bsf	3,5	;RP0=1, select bank1
  4948  006C  01A2               	clrf	_kcomm_wakeup_cnt^(0+128)
  4949  006D  01A3               	clrf	(_kcomm_wakeup_cnt+1)^(0+128)
  4950                           
  4951                           ;main.c: 1128: }
  4952                           ;main.c: 1129: }
  4953                           ;main.c: 1130: }
  4954                           ;main.c: 1131: }
  4955  006E  2872               	goto	i1l4724
  4956  006F                     i1l4722:	
  4957                           
  4958                           ;main.c: 1132: else
  4959                           ;main.c: 1133: {
  4960                           ;main.c: 1134: kcomm_low_cnt = 0;
  4961  006F  1683               	bsf	3,5	;RP0=1, select bank1
  4962  0070  01A4               	clrf	_kcomm_low_cnt^(0+128)
  4963  0071  01A5               	clrf	(_kcomm_low_cnt+1)^(0+128)
  4964  0072                     i1l4724:	
  4965                           
  4966                           ;main.c: 1135: }
  4967                           ;main.c: 1138: if(kcomm_cycle >= 200)
  4968  0072  30C8               	movlw	200
  4969  0073  1683               	bsf	3,5	;RP0=1, select bank1
  4970  0074  0237               	subwf	_kcomm_cycle^(0+128),w
  4971  0075  1C03               	btfss	3,0
  4972  0076  0008               	return
  4973                           
  4974                           ;main.c: 1139: {
  4975                           ;main.c: 1140: kcomm_cycle = 0;
  4976  0077  01B7               	clrf	_kcomm_cycle^(0+128)
  4977                           
  4978                           ;main.c: 1142: if(kcomm_turn == 0)
  4979  0078  0838               	movf	_kcomm_turn^(0+128),w
  4980  0079  1D03               	btfss	3,2
  4981  007A  288A               	goto	i1l4744
  4982                           
  4983                           ;main.c: 1143: {
  4984                           ;main.c: 1145: kcomm_tx_buf = comm_pack_tx();
  4985  007B  2780               	fcall	_comm_pack_tx
  4986  007C  1683               	bsf	3,5	;RP0=1, select bank1
  4987  007D  00BB               	movwf	_kcomm_tx_buf^(0+128)
  4988                           
  4989                           ;main.c: 1146: kcomm_bit_idx = 0;
  4990  007E  1283               	bcf	3,5	;RP0=0, select bank0
  4991  007F  01A6               	clrf	_kcomm_bit_idx
  4992                           
  4993                           ;main.c: 1147: kcomm_timer = 0;
  4994  0080  0194               	clrf	_kcomm_timer
  4995  0081  0195               	clrf	_kcomm_timer+1
  4996                           
  4997                           ;main.c: 1148: kcomm_tx_done = 0;
  4998  0082  1683               	bsf	3,5	;RP0=1, select bank1
  4999  0083  01B5               	clrf	_kcomm_tx_done^(0+128)
  5000  0084  1283               	bcf	3,5	;RP0=0, select bank0
  5001  0085  1346               	bcf	70,6	;volatile
  5002                           
  5003                           ;main.c: 1150: PORTB6 = 1;
  5004  0086  1706               	bsf	6,6	;volatile
  5005                           
  5006                           ;main.c: 1151: kcomm_state = 1;
  5007  0087  01A7               	clrf	_kcomm_state
  5008  0088  0AA7               	incf	_kcomm_state,f
  5009                           
  5010                           ;main.c: 1152: }
  5011  0089  0008               	return
  5012  008A                     i1l4744:	
  5013                           
  5014                           ;main.c: 1153: else
  5015                           ;main.c: 1154: {
  5016                           ;main.c: 1156: kcomm_rx_buf = 0;
  5017  008A  01B9               	clrf	_kcomm_rx_buf^(0+128)
  5018                           
  5019                           ;main.c: 1157: kcomm_bit_idx = 0;
  5020  008B  1283               	bcf	3,5	;RP0=0, select bank0
  5021  008C  01A6               	clrf	_kcomm_bit_idx
  5022                           
  5023                           ;main.c: 1158: kcomm_timer = 0;
  5024  008D  0194               	clrf	_kcomm_timer
  5025  008E  0195               	clrf	_kcomm_timer+1
  5026                           
  5027                           ;main.c: 1159: kcomm_rx_done = 0;
  5028  008F  01A5               	clrf	_kcomm_rx_done
  5029  0090  1346               	bcf	70,6	;volatile
  5030                           
  5031                           ;main.c: 1161: PORTB6 = 1;
  5032  0091  1706               	bsf	6,6	;volatile
  5033                           
  5034                           ;main.c: 1162: kcomm_state = 5;
  5035  0092  3005               	movlw	5
  5036  0093  00A7               	movwf	_kcomm_state
  5037  0094  0008               	return
  5038  0095                     i1l4754:	
  5039                           
  5040                           ;main.c: 1166: }
  5041                           ;main.c: 1168: if(kcomm_state == 1)
  5042  0095  0B27               	decfsz	_kcomm_state,w
  5043  0096  28A6               	goto	i1l4764
  5044                           
  5045                           ;main.c: 1169: {
  5046                           ;main.c: 1170: if(kcomm_timer >= 20)
  5047  0097  3000               	movlw	0
  5048  0098  0215               	subwf	_kcomm_timer+1,w
  5049  0099  3014               	movlw	20
  5050  009A  1903               	btfsc	3,2
  5051  009B  0214               	subwf	_kcomm_timer,w
  5052  009C  1C03               	btfss	3,0
  5053  009D  28A4               	goto	i1l1333
  5054                           
  5055                           ;main.c: 1171: {
  5056                           ;main.c: 1172: kcomm_timer = 0;
  5057  009E  0194               	clrf	_kcomm_timer
  5058  009F  0195               	clrf	_kcomm_timer+1
  5059                           
  5060                           ;main.c: 1173: PORTB6 = 0;
  5061  00A0  1306               	bcf	6,6	;volatile
  5062                           
  5063                           ;main.c: 1174: kcomm_state = 2;
  5064  00A1  3002               	movlw	2
  5065  00A2  00A7               	movwf	_kcomm_state
  5066                           
  5067                           ;main.c: 1175: }
  5068  00A3  0008               	return
  5069  00A4                     i1l1333:	
  5070                           
  5071                           ;main.c: 1176: else
  5072                           ;main.c: 1177: {
  5073                           ;main.c: 1178: PORTB6 = 1;
  5074  00A4  1706               	bsf	6,6	;volatile
  5075  00A5  0008               	return
  5076  00A6                     i1l4764:	
  5077                           
  5078                           ;main.c: 1181: else if(kcomm_state == 2)
  5079  00A6  3002               	movlw	2
  5080  00A7  0627               	xorwf	_kcomm_state,w
  5081  00A8  1D03               	btfss	3,2
  5082  00A9  28BC               	goto	i1l4776
  5083                           
  5084                           ;main.c: 1182: {
  5085                           ;main.c: 1183: if(kcomm_timer >= 10)
  5086  00AA  3000               	movlw	0
  5087  00AB  0215               	subwf	_kcomm_timer+1,w
  5088  00AC  300A               	movlw	10
  5089  00AD  1903               	btfsc	3,2
  5090  00AE  0214               	subwf	_kcomm_timer,w
  5091  00AF  1C03               	btfss	3,0
  5092  00B0  0008               	return
  5093                           
  5094                           ;main.c: 1184: {
  5095                           ;main.c: 1185: kcomm_timer = 0;
  5096  00B1  0194               	clrf	_kcomm_timer
  5097  00B2  0195               	clrf	_kcomm_timer+1
  5098                           
  5099                           ;main.c: 1186: kcomm_tx_shift = kcomm_tx_buf;
  5100  00B3  1683               	bsf	3,5	;RP0=1, select bank1
  5101  00B4  083B               	movf	_kcomm_tx_buf^(0+128),w
  5102  00B5  00BA               	movwf	_kcomm_tx_shift^(0+128)
  5103                           
  5104                           ;main.c: 1187: kcomm_bit_idx = 0;
  5105  00B6  1283               	bcf	3,5	;RP0=0, select bank0
  5106  00B7  01A6               	clrf	_kcomm_bit_idx
  5107                           
  5108                           ;main.c: 1188: PORTB6 = 1;
  5109  00B8  1706               	bsf	6,6	;volatile
  5110                           
  5111                           ;main.c: 1189: kcomm_state = 3;
  5112  00B9  3003               	movlw	3
  5113  00BA  00A7               	movwf	_kcomm_state
  5114  00BB  0008               	return
  5115  00BC                     i1l4776:	
  5116                           
  5117                           ;main.c: 1192: else if(kcomm_state == 3)
  5118  00BC  3003               	movlw	3
  5119  00BD  0627               	xorwf	_kcomm_state,w
  5120  00BE  1D03               	btfss	3,2
  5121  00BF  28EA               	goto	i1l4800
  5122                           
  5123                           ;main.c: 1193: {
  5124                           ;main.c: 1196: if(kcomm_timer >= 14)
  5125  00C0  3000               	movlw	0
  5126  00C1  0215               	subwf	_kcomm_timer+1,w
  5127  00C2  300E               	movlw	14
  5128  00C3  1903               	btfsc	3,2
  5129  00C4  0214               	subwf	_kcomm_timer,w
  5130  00C5  1C03               	btfss	3,0
  5131  00C6  28D8               	goto	i1l1340
  5132  00C7  3008               	movlw	8
  5133                           
  5134                           ;main.c: 1197: {
  5135                           ;main.c: 1199: kcomm_timer = 0;
  5136  00C8  0194               	clrf	_kcomm_timer
  5137  00C9  0195               	clrf	_kcomm_timer+1
  5138                           
  5139                           ;main.c: 1200: kcomm_bit_idx ++;
  5140  00CA  0AA6               	incf	_kcomm_bit_idx,f
  5141                           
  5142                           ;main.c: 1201: if(kcomm_bit_idx >= 8)
  5143  00CB  0226               	subwf	_kcomm_bit_idx,w
  5144  00CC  1C03               	btfss	3,0
  5145  00CD  28D4               	goto	i1l1341
  5146                           
  5147                           ;main.c: 1202: {
  5148                           ;main.c: 1203: PORTB6 = 0;
  5149  00CE  1306               	bcf	6,6	;volatile
  5150                           
  5151                           ;main.c: 1204: kcomm_state = 4;
  5152  00CF  3004               	movlw	4
  5153  00D0  00A7               	movwf	_kcomm_state
  5154                           
  5155                           ;main.c: 1205: kcomm_cycle= 0;
  5156  00D1  1683               	bsf	3,5	;RP0=1, select bank1
  5157  00D2  01B7               	clrf	_kcomm_cycle^(0+128)
  5158                           
  5159                           ;main.c: 1206: }
  5160  00D3  0008               	return
  5161  00D4                     i1l1341:	
  5162                           
  5163                           ;main.c: 1207: else
  5164                           ;main.c: 1208: {
  5165                           ;main.c: 1209: kcomm_tx_shift <<= 1;
  5166  00D4  1683               	bsf	3,5	;RP0=1, select bank1
  5167  00D5  1003               	bcf	3,0
  5168  00D6  0DBA               	rlf	_kcomm_tx_shift^(0+128),f
  5169  00D7  0008               	return
  5170  00D8                     i1l1340:	
  5171                           
  5172                           ;main.c: 1212: else
  5173                           ;main.c: 1213: {
  5174                           ;main.c: 1214: if(kcomm_tx_shift & 0x80)
  5175  00D8  1683               	bsf	3,5	;RP0=1, select bank1
  5176  00D9  1FBA               	btfss	_kcomm_tx_shift^(0+128),7
  5177  00DA  28E5               	goto	i1l4796
  5178                           
  5179                           ;main.c: 1215: {
  5180                           ;main.c: 1216: if(kcomm_timer <= 10)
  5181  00DB  3000               	movlw	0
  5182  00DC  1283               	bcf	3,5	;RP0=0, select bank0
  5183  00DD  0215               	subwf	_kcomm_timer+1,w
  5184  00DE  300B               	movlw	11
  5185  00DF                     L12:	
  5186  00DF  1903               	btfsc	3,2
  5187  00E0  0214               	subwf	_kcomm_timer,w
  5188  00E1  1C03               	btfss	3,0
  5189  00E2  28A4               	goto	i1l1333
  5190                           
  5191                           ;main.c: 1220: else
  5192                           ;main.c: 1221: {
  5193                           ;main.c: 1222: PORTB6 = 0;
  5194  00E3  1306               	bcf	6,6	;volatile
  5195  00E4  0008               	return
  5196  00E5                     i1l4796:	
  5197                           
  5198                           ;main.c: 1225: else
  5199                           ;main.c: 1226: {
  5200                           ;main.c: 1227: if(kcomm_timer <= 4)
  5201  00E5  3000               	movlw	0
  5202  00E6  1283               	bcf	3,5	;RP0=0, select bank0
  5203  00E7  0215               	subwf	_kcomm_timer+1,w
  5204  00E8  3005               	movlw	5
  5205  00E9  28DF               	goto	L12
  5206  00EA                     i1l4800:	
  5207                           
  5208                           ;main.c: 1238: else if(kcomm_state == 4)
  5209  00EA  3004               	movlw	4
  5210  00EB  0627               	xorwf	_kcomm_state,w
  5211  00EC  1D03               	btfss	3,2
  5212  00ED  2901               	goto	i1l4808
  5213                           
  5214                           ;main.c: 1239: {
  5215                           ;main.c: 1240: if(kcomm_timer >= 20)
  5216  00EE  3000               	movlw	0
  5217  00EF  0215               	subwf	_kcomm_timer+1,w
  5218  00F0  3014               	movlw	20
  5219  00F1  1903               	btfsc	3,2
  5220  00F2  0214               	subwf	_kcomm_timer,w
  5221  00F3  1C03               	btfss	3,0
  5222  00F4  0008               	return
  5223                           
  5224                           ;main.c: 1241: {
  5225                           ;main.c: 1242: PORTB6 = 0;
  5226  00F5  1306               	bcf	6,6	;volatile
  5227                           
  5228                           ;main.c: 1243: do { TRISB6 = 1; } while(0);
  5229  00F6  1746               	bsf	70,6	;volatile
  5230                           
  5231                           ;main.c: 1244: kcomm_tx_done = 1;
  5232  00F7  1683               	bsf	3,5	;RP0=1, select bank1
  5233  00F8  01B5               	clrf	_kcomm_tx_done^(0+128)
  5234  00F9  0AB5               	incf	_kcomm_tx_done^(0+128),f
  5235                           
  5236                           ;main.c: 1245: kcomm_turn = 1;
  5237  00FA  01B8               	clrf	_kcomm_turn^(0+128)
  5238  00FB  0AB8               	incf	_kcomm_turn^(0+128),f
  5239  00FC                     i1l4806:	
  5240                           
  5241                           ;main.c: 1246: kcomm_timer = 0;
  5242  00FC  1283               	bcf	3,5	;RP0=0, select bank0
  5243  00FD  0194               	clrf	_kcomm_timer
  5244  00FE  0195               	clrf	_kcomm_timer+1
  5245                           
  5246                           ;main.c: 1247: kcomm_state = 0;
  5247  00FF  01A7               	clrf	_kcomm_state
  5248  0100  0008               	return
  5249  0101                     i1l4808:	
  5250                           
  5251                           ;main.c: 1250: else if(kcomm_state == 5)
  5252  0101  3005               	movlw	5
  5253  0102  0627               	xorwf	_kcomm_state,w
  5254  0103  1D03               	btfss	3,2
  5255  0104  2912               	goto	i1l4818
  5256                           
  5257                           ;main.c: 1251: {
  5258                           ;main.c: 1252: if(kcomm_timer >= 40)
  5259  0105  3000               	movlw	0
  5260  0106  0215               	subwf	_kcomm_timer+1,w
  5261  0107  3028               	movlw	40
  5262  0108  1903               	btfsc	3,2
  5263  0109  0214               	subwf	_kcomm_timer,w
  5264  010A  1C03               	btfss	3,0
  5265  010B  28A4               	goto	i1l1333
  5266                           
  5267                           ;main.c: 1253: {
  5268                           ;main.c: 1254: kcomm_timer = 0;
  5269  010C  0194               	clrf	_kcomm_timer
  5270  010D  0195               	clrf	_kcomm_timer+1
  5271                           
  5272                           ;main.c: 1255: PORTB6 = 0;
  5273  010E  1306               	bcf	6,6	;volatile
  5274                           
  5275                           ;main.c: 1256: kcomm_state = 6;
  5276  010F  3006               	movlw	6
  5277  0110  00A7               	movwf	_kcomm_state
  5278                           
  5279                           ;main.c: 1257: }
  5280  0111  0008               	return
  5281  0112                     i1l4818:	
  5282                           
  5283                           ;main.c: 1263: else if(kcomm_state == 6)
  5284  0112  3006               	movlw	6
  5285  0113  0627               	xorwf	_kcomm_state,w
  5286  0114  1D03               	btfss	3,2
  5287  0115  292B               	goto	i1l4830
  5288                           
  5289                           ;main.c: 1264: {
  5290                           ;main.c: 1265: if(kcomm_timer >= 10)
  5291  0116  3000               	movlw	0
  5292  0117  0215               	subwf	_kcomm_timer+1,w
  5293  0118  300A               	movlw	10
  5294  0119  1903               	btfsc	3,2
  5295  011A  0214               	subwf	_kcomm_timer,w
  5296  011B  1C03               	btfss	3,0
  5297  011C  0008               	return
  5298                           
  5299                           ;main.c: 1266: {
  5300                           ;main.c: 1267: kcomm_timer = 0;
  5301  011D  0194               	clrf	_kcomm_timer
  5302  011E  0195               	clrf	_kcomm_timer+1
  5303                           
  5304                           ;main.c: 1268: bit_wait_fall = 0;
  5305  011F  1683               	bsf	3,5	;RP0=1, select bank1
  5306  0120  01A8               	clrf	Kcomm_ISR@bit_wait_fall^(0+128)
  5307                           
  5308                           ;main.c: 1269: kcomm_bit_idx = 0;
  5309  0121  1283               	bcf	3,5	;RP0=0, select bank0
  5310  0122  01A6               	clrf	_kcomm_bit_idx
  5311                           
  5312                           ;main.c: 1270: kcomm_rx_shift = 0;
  5313  0123  1683               	bsf	3,5	;RP0=1, select bank1
  5314  0124  01B6               	clrf	_kcomm_rx_shift^(0+128)
  5315  0125  1283               	bcf	3,5	;RP0=0, select bank0
  5316  0126  1746               	bsf	70,6	;volatile
  5317                           
  5318                           ;main.c: 1272: PORTB6 = 0;
  5319  0127  1306               	bcf	6,6	;volatile
  5320                           
  5321                           ;main.c: 1273: kcomm_state = 9;
  5322  0128  3009               	movlw	9
  5323  0129  00A7               	movwf	_kcomm_state
  5324                           
  5325                           ;main.c: 1274: }
  5326                           ;main.c: 1275: }
  5327  012A  0008               	return
  5328  012B                     i1l4830:	
  5329                           
  5330                           ;main.c: 1276: else if(kcomm_state == 9)
  5331  012B  3009               	movlw	9
  5332  012C  0627               	xorwf	_kcomm_state,w
  5333  012D  1D03               	btfss	3,2
  5334  012E  297A               	goto	i1l4876
  5335                           
  5336                           ;main.c: 1277: {
  5337                           ;main.c: 1278: if(kcomm_timer >= ((kcomm_bit_idx == 0 && bit_wait_fall == 0) ? 400u : 60
      +                          u))
  5338  012F  0826               	movf	_kcomm_bit_idx,w
  5339  0130  1D03               	btfss	3,2
  5340  0131  2936               	goto	i1l4836
  5341  0132  1683               	bsf	3,5	;RP0=1, select bank1
  5342  0133  0828               	movf	Kcomm_ISR@bit_wait_fall^(0+128),w
  5343  0134  1903               	btfsc	3,2
  5344  0135  293B               	goto	i1l4838
  5345  0136                     i1l4836:	
  5346  0136  303C               	movlw	60
  5347  0137  1283               	bcf	3,5	;RP0=0, select bank0
  5348  0138  00AB               	movwf	_Kcomm_ISR$634
  5349  0139  01AC               	clrf	_Kcomm_ISR$634+1
  5350  013A  2940               	goto	i1l1370
  5351  013B                     i1l4838:	
  5352  013B  3090               	movlw	144
  5353  013C  1283               	bcf	3,5	;RP0=0, select bank0
  5354  013D  00AB               	movwf	_Kcomm_ISR$634
  5355  013E  3001               	movlw	1
  5356  013F  00AC               	movwf	_Kcomm_ISR$634+1
  5357  0140                     i1l1370:	
  5358  0140  082C               	movf	_Kcomm_ISR$634+1,w
  5359  0141  0215               	subwf	_kcomm_timer+1,w
  5360  0142  1D03               	btfss	3,2
  5361  0143  2946               	goto	u432_25
  5362  0144  082B               	movf	_Kcomm_ISR$634,w
  5363  0145  0214               	subwf	_kcomm_timer,w
  5364  0146                     u432_25:	
  5365  0146  1C03               	btfss	3,0
  5366  0147  294D               	goto	i1l4848
  5367                           
  5368                           ;main.c: 1279: {
  5369                           ;main.c: 1280: kcomm_rx_done = 0xFF;
  5370  0148  30FF               	movlw	255
  5371  0149  00A5               	movwf	_kcomm_rx_done
  5372                           
  5373                           ;main.c: 1281: kcomm_turn = 0;
  5374                           ;main.c: 1282: kcomm_timer = 0;
  5375  014A  2186               	fcall	PL8	;call to abstracted procedure
  5376  014B                     i1l4846:	
  5377                           
  5378                           ;main.c: 1283: kcomm_state = 0;
  5379  014B  01A7               	clrf	_kcomm_state
  5380                           
  5381                           ;main.c: 1284: }
  5382  014C  0008               	return
  5383  014D                     i1l4848:	
  5384                           
  5385                           ;main.c: 1285: else if(bit_wait_fall == 0)
  5386  014D  1683               	bsf	3,5	;RP0=1, select bank1
  5387  014E  0828               	movf	Kcomm_ISR@bit_wait_fall^(0+128),w
  5388                           
  5389                           ;main.c: 1286: {
  5390                           ;main.c: 1288: if(((PORTB & 0x40) ? 1 : 0))
  5391  014F  1283               	bcf	3,5	;RP0=0, select bank0
  5392  0150  1D03               	btfss	3,2
  5393  0151  295A               	goto	L13
  5394  0152  1F06               	btfss	6,6	;volatile
  5395  0153  0008               	return
  5396                           
  5397                           ;main.c: 1289: {
  5398                           ;main.c: 1290: kcomm_timer = 0;
  5399  0154  0194               	clrf	_kcomm_timer
  5400  0155  0195               	clrf	_kcomm_timer+1
  5401                           
  5402                           ;main.c: 1291: bit_wait_fall = 1;
  5403  0156  1683               	bsf	3,5	;RP0=1, select bank1
  5404  0157  01A8               	clrf	Kcomm_ISR@bit_wait_fall^(0+128)
  5405  0158  0AA8               	incf	Kcomm_ISR@bit_wait_fall^(0+128),f
  5406  0159  0008               	return
  5407  015A                     L13:	
  5408                           
  5409                           ;main.c: 1294: else
  5410                           ;main.c: 1295: {
  5411                           ;main.c: 1297: if(!((PORTB & 0x40) ? 1 : 0))
  5412  015A  1B06               	btfsc	6,6	;volatile
  5413  015B  0008               	return
  5414  015C  3000               	movlw	0
  5415                           
  5416                           ;main.c: 1298: {
  5417                           ;main.c: 1299: kcomm_rx_shift <<= 1;
  5418  015D  1683               	bsf	3,5	;RP0=1, select bank1
  5419  015E  1003               	bcf	3,0
  5420  015F  0DB6               	rlf	_kcomm_rx_shift^(0+128),f
  5421                           
  5422                           ;main.c: 1300: if(kcomm_timer >= 7)
  5423  0160  1283               	bcf	3,5	;RP0=0, select bank0
  5424  0161  0215               	subwf	_kcomm_timer+1,w
  5425  0162  3007               	movlw	7
  5426  0163  1903               	btfsc	3,2
  5427  0164  0214               	subwf	_kcomm_timer,w
  5428                           
  5429                           ;main.c: 1301: kcomm_rx_shift |= 1;
  5430  0165  1683               	bsf	3,5	;RP0=1, select bank1
  5431  0166  1803               	btfsc	3,0
  5432  0167  1436               	bsf	_kcomm_rx_shift^(0+128),0
  5433  0168  3008               	movlw	8
  5434                           
  5435                           ;main.c: 1303: bit_wait_fall = 0;
  5436  0169  1683               	bsf	3,5	;RP0=1, select bank1
  5437  016A  01A8               	clrf	Kcomm_ISR@bit_wait_fall^(0+128)
  5438                           
  5439                           ;main.c: 1304: kcomm_bit_idx++;
  5440  016B  1283               	bcf	3,5	;RP0=0, select bank0
  5441  016C  0AA6               	incf	_kcomm_bit_idx,f
  5442                           
  5443                           ;main.c: 1306: if(kcomm_bit_idx >= 8)
  5444  016D  0226               	subwf	_kcomm_bit_idx,w
  5445  016E  1C03               	btfss	3,0
  5446  016F  0008               	return
  5447                           
  5448                           ;main.c: 1307: {
  5449                           ;main.c: 1308: kcomm_rx_buf = kcomm_rx_shift;
  5450  0170  1683               	bsf	3,5	;RP0=1, select bank1
  5451  0171  0836               	movf	_kcomm_rx_shift^(0+128),w
  5452  0172  00B9               	movwf	_kcomm_rx_buf^(0+128)
  5453  0173  300A               	movlw	10
  5454                           
  5455                           ;main.c: 1309: kcomm_rx_done = 1;
  5456  0174  1283               	bcf	3,5	;RP0=0, select bank0
  5457  0175  01A5               	clrf	_kcomm_rx_done
  5458  0176  0AA5               	incf	_kcomm_rx_done,f
  5459                           
  5460                           ;main.c: 1310: kcomm_turn = 0;
  5461  0177  2186               	fcall	PL8	;call to abstracted procedure
  5462                           
  5463                           ;main.c: 1312: kcomm_state = 10;
  5464  0178  00A7               	movwf	_kcomm_state
  5465  0179  0008               	return
  5466  017A                     i1l4876:	
  5467                           
  5468                           ;main.c: 1317: else if(kcomm_state == 10)
  5469  017A  300A               	movlw	10
  5470  017B  0627               	xorwf	_kcomm_state,w
  5471  017C  1D03               	btfss	3,2
  5472  017D  294B               	goto	i1l4846
  5473                           
  5474                           ;main.c: 1318: {
  5475                           ;main.c: 1319: if(kcomm_timer >= 10)
  5476  017E  3000               	movlw	0
  5477  017F  0215               	subwf	_kcomm_timer+1,w
  5478  0180  300A               	movlw	10
  5479  0181  1903               	btfsc	3,2
  5480  0182  0214               	subwf	_kcomm_timer,w
  5481  0183  1C03               	btfss	3,0
  5482  0184  0008               	return
  5483  0185  28FC               	goto	i1l4806
  5484  0186                     __end_of_Kcomm_ISR:	
  5485  0186                     PL8:	
  5486  0186  1683               	bsf	3,5	;RP0=1, select bank1
  5487  0187  01B8               	clrf	_kcomm_turn^(0+128)
  5488  0188  1283               	bcf	3,5	;RP0=0, select bank0
  5489  0189  0194               	clrf	_kcomm_timer
  5490  018A  0195               	clrf	_kcomm_timer+1
  5491  018B  0008               	return
  5492  018C                     __end_ofPL8:	
  5493                           
  5494                           	psect	text27
  5495  0780                     __ptext27:	
  5496  0780                     _comm_pack_tx:	
  5497 ;; *************** function _comm_pack_tx *****************
  5498 ;; Defined at:
  5499 ;;		line 1025 in file "main.c"
  5500 ;; Parameters:    Size  Location     Type
  5501 ;;		None
  5502 ;; Auto vars:     Size  Location     Type
  5503 ;;  lo              1    2[BANK0 ] unsigned char 
  5504 ;;  result          1    1[BANK0 ] unsigned char 
  5505 ;;  hi              1    0[BANK0 ] unsigned char 
  5506 ;; Return value:  Size  Location     Type
  5507 ;;                  1    wreg      unsigned char 
  5508 ;; Registers used:
  5509 ;;		wreg, status,2, status,0
  5510 ;; Tracked objects:
  5511 ;;		On entry : 100/100
  5512 ;;		On exit  : 100/0
  5513 ;;		Unchanged: 0/0
  5514 ;; Data sizes:     COMMON   BANK0   BANK1
  5515 ;;      Params:         0       0       0
  5516 ;;      Locals:         0       3       0
  5517 ;;      Temps:          0       0       0
  5518 ;;      Totals:         0       3       0
  5519 ;;Total ram usage:        3 bytes
  5520 ;; Hardware stack levels used:    1
  5521 ;; This function calls:
  5522 ;;		Nothing
  5523 ;; This function is called by:
  5524 ;;		_Kcomm_ISR
  5525 ;; This function uses a non-reentrant model
  5526 ;;
  5527                           ;psect for function _comm_pack_tx
  5528                           
  5529                           
  5530                           ;main.c: 1027: unsigned char lo = 0;
  5531                           ;incstack = 0
  5532                           ; Regs used in _comm_pack_tx: [wreg+status,2+status,0]
  5533  0780  1283               	bcf	3,5	;RP0=0, select bank0
  5534  0781  01AA               	clrf	comm_pack_tx@lo
  5535                           
  5536                           ;main.c: 1028: unsigned char hi;
  5537                           ;main.c: 1029: unsigned char result;
  5538                           ;main.c: 1031: if(DIY_Flag2.OnrBit.b0)
  5539  0782  1C21               	btfss	_DIY_Flag2,0
  5540  0783  2F88               	goto	i1l3902
  5541                           
  5542                           ;main.c: 1032: {
  5543                           ;main.c: 1033: lo |= 0x04;
  5544  0784  152A               	bsf	comm_pack_tx@lo,2
  5545                           
  5546                           ;main.c: 1036: if(DIY_Flag2.OnrBit.b1)
  5547  0785  1CA1               	btfss	_DIY_Flag2,1
  5548  0786  2F88               	goto	i1l3902
  5549                           
  5550                           ;main.c: 1037: lo |= 0x02;
  5551  0787  14AA               	bsf	comm_pack_tx@lo,1
  5552  0788                     i1l3902:	
  5553                           
  5554                           ;main.c: 1038: }
  5555                           ;main.c: 1041: lo = lo & 0x0F;
  5556  0788  300F               	movlw	15
  5557  0789  05AA               	andwf	comm_pack_tx@lo,f
  5558                           
  5559                           ;main.c: 1042: hi = lo ^ 0x0F;
  5560  078A  082A               	movf	comm_pack_tx@lo,w
  5561  078B  3A0F               	xorlw	15
  5562  078C  00A8               	movwf	comm_pack_tx@hi
  5563                           
  5564                           ;main.c: 1043: result = (hi << 4) | lo;
  5565  078D  0E28               	swapf	comm_pack_tx@hi,w
  5566  078E  39F0               	andlw	240
  5567  078F  042A               	iorwf	comm_pack_tx@lo,w
  5568  0790  00A9               	movwf	comm_pack_tx@result
  5569                           
  5570                           ;main.c: 1044: return result;
  5571  0791  0008               	return
  5572  0792                     __end_of_comm_pack_tx:	
  5573  003E                     btemp	set	62	;btemp
  5574  003E                     wtemp0	set	62
  5575                           
  5576                           	psect	pa_nodes0
  5577  0000                     SFR:	
  5578  0000                     Addresses:	
  5579                           ; Version 1.45
  5580                           ; Generated 16/11/2017 GMT
  5581                           ; 
  5582                           ; Copyright © 2017, Microchip Technology Inc. and its subsidiaries ("Microchip")
  5583                           ; All rights reserved.
  5584                           ; 
  5585                           ; This software is developed by Microchip Technology Inc. and its subsidiaries ("Microch
      +                          ip").
  5586                           ; 
  5587                           ; Redistribution and use in source and binary forms, with or without modification, are
  5588                           ; permitted provided that the following conditions are met:
  5589                           ; 
  5590                           ;     1. Redistributions of source code must retain the above copyright notice, this lis
      +                          t of
  5591                           ;        conditions and the following disclaimer.
  5592                           ; 
  5593                           ;     2. Redistributions in binary form must reproduce the above copyright notice, this 
      +                          list
  5594                           ;        of conditions and the following disclaimer in the documentation and/or other
  5595                           ;        materials provided with the distribution.
  5596                           ; 
  5597                           ;     3. Microchip's name may not be used to endorse or promote products derived from th
      +                          is
  5598                           ;        software without specific prior written permission.
  5599                           ; 
  5600                           ; THIS SOFTWARE IS PROVIDED BY MICROCHIP "AS IS" AND ANY EXPRESS OR IMPLIED WARRANTIES,
  5601                           ; INCLUDING, BUT NOT LIMITED TO, THE IMPLIED WARRANTIES OF MERCHANTABILITY AND FITNESS F
      +                          OR
  5602                           ; PURPOSE ARE DISCLAIMED.  IN NO EVENT SHALL MICROCHIP BE LIABLE FOR ANY DIRECT, INDIREC
      +                          T,
  5603                           ; INCIDENTAL, SPECIAL, EXEMPLARY, OR CONSequENTIAL DAMAGES (INCLUDING BUT NOT LIMITED TO
  5604                           ; PROCUREMENT OF SUBSTITUTE GOODS OR SERVICES; LOSS OF USE, DATA OR PROFITS; OR BUSINESS
  5605                           ; INTERRUPTION) HOWSOEVER CAUSED AND ON ANY THEORY OF LIABILITY, WHETHER IN CONTRACT, ST
      +                          RICT
  5606                           ; LIABILITY, OR TORT (INCLUDING NEGLIGENCE OR OTHERWISE) ARISING IN ANY WAY OUT OF THE U
      +                          SE OF
  5607                           ; THIS SOFTWARE, EVEN IF ADVISED OF THE POSSIBILITY OF SUCH DAMAGE.
  5608                           ; 
  5609                           ; 
  5610                           ; Code-generator required, PIC16F887 Definitions
  5611                           ; 
  5612                           ; SFR Addresses
  5613                           


Data Sizes:
    Strings     0
    Constant    7
    Data        3
    BSS         68
    Persistent  0
    Stack       0

Auto Spaces:
    Space          Size  Autos    Used
    COMMON            0      0       0
    BANK0            46     13      39
    BANK1            80     12      57

Pointer List with Targets:

    None.

Critical Paths under _main in COMMON

    None.

Critical Paths under _Timer1_Isr in COMMON

    None.

Critical Paths under _main in BANK0

    _main->_Battery_Update
    _Sleep_Func->_delay_us
    _ADC_Init->_delay_us
    _LedMode_Func->_show_gear_led
    _Key_Application->_Battery_Update
    _warn_flash_proc->_show_gear_led
    _Battery_Update->_adc_read_vdd
    _Gear5_Duty_Update->___wmul
    ___lwdiv->___wmul
    _Comm_Process->_comm_parse_rx

Critical Paths under _Timer1_Isr in BANK0

    _Timer1_Isr->_Kcomm_ISR
    _Kcomm_ISR->_comm_pack_tx

Critical Paths under _main in BANK1

    _main->_sysinitial
    _Sleep_Func->_sysinitial
    _Gear5_Duty_Update->___lwdiv

Critical Paths under _Timer1_Isr in BANK1

    None.

Call Graph Tables:

 ---------------------------------------------------------------------------------
 (Depth) Function   	        Calls       Base Space   Used Autos Params    Refs
 ---------------------------------------------------------------------------------
 (0) _main                                                 0     0      0    2784
                           _ADC_Init
                     _Battery_Update
                       _Comm_Process
                         _Delay_Init
                  _Gear5_Duty_Update
                    _Key_Application
                           _Key_Func
                       _LedMode_Func
                            _SW_Func
                         _Sleep_Func
                      _T1_PWM_inital
                      _fan_ramp_proc
                             _inital
                         _ramInitial
                            _set_fan
                         _sysinitial
 ---------------------------------------------------------------------------------
 (1) _ramInitial                                           0     0      0       0
 ---------------------------------------------------------------------------------
 (1) _fan_ramp_proc                                        4     4      0     134
                                              7 BANK0      4     4      0
 ---------------------------------------------------------------------------------
 (1) _T1_PWM_inital                                        0     0      0       0
 ---------------------------------------------------------------------------------
 (1) _Sleep_Func                                           1     1      0     548
                           _ADC_Init
                           _delay_us
                             _inital
                         _sysinitial
 ---------------------------------------------------------------------------------
 (1) _sysinitial                                          12    12      0     240
                                              0 BANK1     12    12      0
 ---------------------------------------------------------------------------------
 (1) _inital                                               0     0      0       0
 ---------------------------------------------------------------------------------
 (2) _ADC_Init                                             0     0      0     154
                           _delay_us
 ---------------------------------------------------------------------------------
 (2) _delay_us                                             4     2      2     154
                                              7 BANK0      4     2      2
 ---------------------------------------------------------------------------------
 (1) _SW_Func                                              0     0      0       0
 ---------------------------------------------------------------------------------
 (1) _LedMode_Func                                         0     0      0     155
                      _show_gear_led
 ---------------------------------------------------------------------------------
 (1) _Key_Func                                             0     0      0       0
 ---------------------------------------------------------------------------------
 (1) _Key_Application                                      3     3      0     619
                                              0 BANK1      3     3      0
                     _Battery_Update
                            _set_fan
                      _show_gear_led
                       _trigger_warn
                    _warn_flash_proc
 ---------------------------------------------------------------------------------
 (2) _warn_flash_proc                                      0     0      0     155
                      _show_gear_led
 ---------------------------------------------------------------------------------
 (2) _show_gear_led                                        1     1      0     155
                                              7 BANK0      1     1      0
 ---------------------------------------------------------------------------------
 (2) _trigger_warn                                         1     1      0      31
                                              7 BANK0      1     1      0
 ---------------------------------------------------------------------------------
 (1) _set_fan                                              1     1      0      96
                                              7 BANK0      1     1      0
 ---------------------------------------------------------------------------------
 (2) _Battery_Update                                       2     2      0      40
                                             11 BANK0      2     2      0
                       _adc_read_vdd
 ---------------------------------------------------------------------------------
 (3) _adc_read_vdd                                         4     2      2      40
                                              7 BANK0      4     2      2
 ---------------------------------------------------------------------------------
 (1) _Gear5_Duty_Update                                    0     0      0     527
                            ___lwdiv
                             ___wmul
 ---------------------------------------------------------------------------------
 (2) ___wmul                                               6     2      4     178
                                              7 BANK0      6     2      4
 ---------------------------------------------------------------------------------
 (2) ___lwdiv                                              7     3      4     349
                                              0 BANK1      7     3      4
                             ___wmul (ARG)
 ---------------------------------------------------------------------------------
 (1) _Delay_Init                                           4     2      2      89
                                              7 BANK0      4     2      2
 ---------------------------------------------------------------------------------
 (1) _Comm_Process                                         1     1      0     182
                                             11 BANK0      1     1      0
                      _comm_parse_rx
 ---------------------------------------------------------------------------------
 (2) _comm_parse_rx                                        4     4      0     159
                                              7 BANK0      4     4      0
 ---------------------------------------------------------------------------------
 Estimated maximum stack depth 3
 ---------------------------------------------------------------------------------
 (Depth) Function   	        Calls       Base Space   Used Autos Params    Refs
 ---------------------------------------------------------------------------------
 (4) _Timer1_Isr                                           2     2      0     118
                                              5 BANK0      2     2      0
                          _Kcomm_ISR
 ---------------------------------------------------------------------------------
 (5) _Kcomm_ISR                                            2     2      0     118
                                              3 BANK0      2     2      0
                       _comm_pack_tx
 ---------------------------------------------------------------------------------
 (6) _comm_pack_tx                                         3     3      0      94
                                              0 BANK0      3     3      0
 ---------------------------------------------------------------------------------
 Estimated maximum stack depth 6
 ---------------------------------------------------------------------------------

 Call Graph Graphs:

 _main (ROOT)
   _ADC_Init
     _delay_us
   _Battery_Update
     _adc_read_vdd
   _Comm_Process
     _comm_parse_rx
   _Delay_Init
   _Gear5_Duty_Update
     ___lwdiv
       ___wmul (ARG)
     ___wmul
   _Key_Application
     _Battery_Update
       _adc_read_vdd
     _set_fan
     _show_gear_led
     _trigger_warn
     _warn_flash_proc
       _show_gear_led
   _Key_Func
   _LedMode_Func
     _show_gear_led
   _SW_Func
   _Sleep_Func
     _ADC_Init
       _delay_us
     _delay_us
     _inital
     _sysinitial
   _T1_PWM_inital
   _fan_ramp_proc
   _inital
   _ramInitial
   _set_fan
   _sysinitial

 _Timer1_Isr (ROOT)
   _Kcomm_ISR
     _comm_pack_tx

 Address spaces:
Name               Size   Autos  Total    Cost      Usage
BITCOMMON            0      0       0       0        0.0%
NULL                 0      0       0       0        0.0%
CODE                 0      0       0       0        0.0%
BITSFR0              0      0       0       1        0.0%
SFR0                 0      0       0       1        0.0%
COMMON               0      0       0       1        0.0%
BITSFR1              0      0       0       2        0.0%
SFR1                 0      0       0       2        0.0%
STACK                0      0       0       2        0.0%
BITBANK0            2E      0       0       3        0.0%
BANK0               2E      D      27       4       84.8%
BITBANK1            50      0       0       5        0.0%
BANK1               50      C      39       6       71.3%
ABS                  0      0      60       7        0.0%
DATA                 0      0      60       8        0.0%


Microchip Technology PIC Macro Assembler V1.45 build -152302408 
Symbol Table                                                                                   Wed Jul 08 15:07:11 2026

        Kcomm_ISR@bit_wait_fall 00A8                   ?_comm_pack_tx 0028              __end_of_sysinitial 0649  
         __size_of_trigger_warn 000C                               L1 01F9                               L2 01E8  
                             L3 01F8                               L4 065D                               L8 0363  
                             L9 067E                              L10 0698                              L11 0597  
                            L12 00DF                              L13 015A                              PL2 02D0  
                            PL4 04B4                              PL6 05AB                              PL8 0186  
                            SFR 0000              comm_pack_tx@result 0029                              _T0 0001  
                            _T1 004D                              _T2 0052             ___wmul@multiplicand 0031  
        Battery_Update@loop_num 00B2          Battery_Update@loop_sum 0094                  ?_comm_parse_rx 0028  
                           PL10 02D6                             _GIE 0077                             _BOR 025B  
                           _FSR 0004                             _PS0 0208                             _PS1 0209  
                           _PS2 020A                             _PIR 000F                             _SCS 0285  
                           _PSA 020B                             _POR 025C            Delay_Init@Delay_Duty 002F  
                          l1100 0447                            l1006 0731                            l1031 06F0  
                          l1019 0497                            l1300 071D                            l1116 0308  
                          l1204 0669                            l1301 071E                            l1045 0399  
                          l1302 0722                            l1142 036C                            l1063 03D0  
                          l1055 03B5                            l1047 040F                            l1081 03FD  
                          l1049 039D                            l1401 05D6                            l1090 0431  
                          l1251 01B4                            l1075 03EE                            l1069 03DF  
                          l1262 0215                            l1087 040D                            l1248 0206  
                          l1096 042B                            l1099 0442                            l1268 023D  
                          l4310 0549                            l4302 0537                            l5024 06F5  
                          l5120 0324                            l5112 0311                            l5130 0362  
                          l5122 0326                            l5114 0313                            l5124 032D  
                          l5116 031A                            l5132 0338                            l5108 0306  
                          l4316 0561                            l5126 032F                            l5118 031D  
                          l5230 0672                            l4334 05F6                            l3630 072F  
                          l5128 0336                            l5224 066B                            l4344 0600  
                          l3640 0724                            l5410 03C4                            l5244 0685  
                          l5172 0387                            l4356 060E                            l5420 03D1  
                          l5412 03C8                            l5174 038A                            l5158 0364  
                          l5190 0774                            l5430 03E0                            l5422 03D5  
                          l5414 03CA                            l4382 06B3                            l5342 049C  
                          l5256 069C                            l5520 04CE                            l5176 037F  
                          l5440 03EF                            l5432 03E4                            l5424 03D7  
                          l5272 0457                            l5514 04C5                            l5194 077A  
                          l5450 03FE                            l5442 03F3                            l5434 03E6  
                          l4386 06BA                            l5346 04A1                            l5274 045A  
                          l4298 0535                            l5452 0407                            l5444 03F5  
                          l5372 0397                            l3942 0748                            l5550 0506  
                          l5710 021F                            l5614 01C8                            l5606 01BD  
                          l5454 0409                            l5390 03B0                            l4904 06DF  
                          l5536 04ED                            l5480 042D                            l5456 0403  
                          l4906 06E4                            l3938 0740                            l5538 04F1  
                          l5626 01D6                            l5562 019F                            l5474 0424  
                          l5394 03B7                            l5812 02AD                            l5716 0226  
                          l5492 043D                            l5476 0426                            l5388 03AE  
                          l3980 0794                            l5830 02CA                            l5742 0238  
                          l5734 022F                            l5646 01E7                            l5558 0198  
                          l5824 02C3                            _ADIF 007A                            _ADEN 02D0  
                          l5770 0262                            l5586 01F7                            l5850 05C2  
                          l5828 02C7                            l5780 0270                            l5764 0259  
                          l5676 01F1                            l5596 01AA                            l3988 079C  
                          l3998 07A5                            l5790 0283                            l4888 06CA  
                          l5872 05DF                            l4898 06D9                            l5794 0289  
                          l5866 05DB                            l5796 028C                            l5868 05DD  
                          _ADON 02D1                            _CHS0 02D2                            _CHS1 02D3  
                          _CHS2 02D4                            _CHS3 02D5                            _T0CK 025F  
                          _T0IE 0070                            _T0IF 0073                            _T0CS 020D  
                          _T1IE 0259                            _T1IF 0258                            _T1EN 0267  
                          _T2IE 025E                            _T2IF 025D                            _T2EN 0287  
                          _PDA0 0210                            _PDA1 0211                            _PDA2 0212  
                          _PDA3 0213                            _PDA4 0214                            _PDA5 0215  
                          _PDA6 0216                            _PDA7 0217                            _T0SE 020C  
                          _IOCA 0007                            _IOCB 0009                            _INDF 0000  
                          _PHA0 0218                            _PHA1 0219                            _PHA2 021A  
                          _PHA3 021B                            _PHA4 021C                            _PHA5 021D  
                          _PHA6 021E                            _PHA7 021F                            _PAIE 0079  
                          _PAIF 0078                            _PBIE 0071                            _PBIF 0074  
                          u3445 053D                            u3465 054F                            u2835 07AB  
                          u3475 055B                            u3485 0566                            u4914 065E  
                          u4995 068E                            _VHS0 02D9                            _VHS1 02DA  
                          _VHS2 02DB                            _PWMM 02A8                 ?_Battery_Update 0028  
         __size_of_adc_read_vdd 0021                            _main 05B1                    _trigger_warn 07EA  
                          btemp 003E                      _Delay_Init 07A3                __end_of_ADC_Init 07EA  
                          start 0015                 __end_of_SW_Func 06C6                    _g_k1_hold_ms 00A0  
                ??_comm_pack_tx 0000                    _g_k2_hold_ms 009E               _Gear5_Duty_Update 04BD  
   Key_Application@off_key_prev 00A9              ?_Gear5_Duty_Update 0028                ?_Key_Application 0028  
  Gear5_Duty_Update@cur_percent 0035                 ??_show_gear_led 0000                           _ADCS0 02DC  
                         _ADCS1 02DD                           _ADCS2 02DE                           ?_main 0028  
                         _ADREF 02D8                           _T1CK0 0263                           _T1CK1 0264  
                         _T2CK0 0283                           _T2CK1 0284                           _BOREN 025A  
                         _T1CON 004C                           _T2CON 0050                           _T1PR0 0260  
                         _T1PR1 0261                           _T1PR2 0262                           _T2PR0 0280  
                         _T2PR1 0281                           _T2PR2 0282                 __end_of___lwdiv 06A1  
                         _PDCON 000B                           _PHCON 000D                           _PMCON 0040  
                         _PWM0E 0266                           _PWM1E 0286                           _TMR2H 0051  
                         _PWM0P 004F                           _PWM1P 0054                           _PORTA 0005  
                         _PORTB 0006                           _WDTEN 020F                           _PWMS0 028E  
                         _PWMS1 028F                           _TRISA 0045                           _TRISB 0046  
          __end_of_LedMode_Func 044B             ??_Gear5_Duty_Update 0000                    _adc_read_vdd 06E8  
                         _level 0019                 __end_of_set_fan 0780                           wtemp0 003E  
          __end_of_Comm_Process 06E8       __end_of_Gear5_Duty_Update 0522                 __initialization 0016  
                  __end_of_main 05E8                __end_of_Key_Func 0619                   _kcomm_bit_idx 0026  
               ??_comm_parse_rx 0000          __size_of_T1_PWM_inital 000F                          ??_main 0000  
                 _kcomm_low_cnt 00A4                   _kcomm_rx_done 0025                   _kcomm_tx_done 00B5  
         __end_of_fan_ramp_proc 0572                          _ADCON0 005A                          _ADCON1 005B  
                        _ADRESH 0059                          _ADRESL 0058                          _ANSEL0 02B0  
                        _ANSEL1 02B1                          _ANSEL2 02B2                          _ANSEL3 02B3  
                        _ANSEL4 02B4                          _ANSEL5 02B5                          _ANSEL6 02B6  
                        _ANSEL7 02B7                          _ANSEL8 02B8                          _ANSEL9 02B9  
                        _ANSELH 0057                          _ANSELL 0056              __size_of_Kcomm_ISR 016E  
                        _T1LOAD 004E                          _T2LOAD 0053                          i1l1323 0069  
                        i1l1340 00D8                          i1l1341 00D4                          i1l1333 00A4  
                        i1l1370 0140                          i1l5012 0598                          _PDCON1 0042  
                        i1l3902 0788                          i1l4800 00EA                          i1l4706 0053  
                        i1l4722 006F                          i1l4724 0072                          i1l4830 012B  
                        i1l4806 00FC                          i1l4808 0101                          i1l4744 008A  
                        i1l4818 0112                          i1l4754 0095                          i1l4836 0136  
                        i1l4764 00A6                          i1l4846 014B                          i1l4838 013B  
                        i1l4686 0029                          i1l4848 014D                          i1l4776 00BC  
                        i1l4696 0040                          _INTEDG 020E                          i1l4876 017A  
                        i1l4796 00E5                          i1l4994 0580                          _PHCON1 0043  
                        _PMADRH 0048                          u432_25 0146                          _PMADRL 0047  
                        _PMDATH 004A                          _PMDATL 0049                       ??_SW_Func 0000  
                        _PORTA1 0029                          _PORTB0 0030                          _PORTA2 002A  
                        _PORTB1 0031                          _PORTA3 002B                          _PORTB2 0032  
                        _PORTA4 002C                          _PORTA6 002E                          _PORTA7 002F  
                        _PORTB6 0036                          _OPTION 0041                          _PWM1_8 0288  
                        _PWM1_9 0289                          _TRISA0 0228                          _TRISA1 0229  
                        _TRISB0 0230                          _TRISA2 022A                          _TRISB1 0231  
                        _TRISA3 022B                          _TRISB2 0232                          _TRISA4 022C  
                        _TRISB3 0233                          _TRISA5 022D                          _TRISB4 0234  
                        _TRISA6 022E                          _TRISB5 0235                          _TRISA7 022F  
                        _TRISB6 0236                          _TRISB7 0237                          _PWMSET 0055  
                   ?_Delay_Init 002F               Timer1_Isr@pwm_cnt 00A6                __end_of_delay_us 073E  
                    _Sleep_Func 044B                      _Timer1_Isr 0572                          ___wmul 073E  
                        _g_gear 0020                       ??___lwdiv 0000                          _inital 07C2  
                     ?_ADC_Init 0028                          saved_w 003E                       ??_set_fan 0000  
          __end_of_comm_pack_tx 0792        __size_of_warn_flash_proc 002E                   _T1_PWM_inital 07B3  
           _Key_Application$619 00BC         __end_of__initialization 0016         LedMode_Func@chg_pwm_cnt 0018  
    __size_of_Gear5_Duty_Update 0065                  __pcstackCOMMON 0000                    __pidataBANK0 07F6  
                  __pidataBANK1 07F8                _kcomm_wakeup_cnt 00A2                      _adcon1_val 0023  
                    _c_fan_duty 07D6               __end_of_Kcomm_ISR 0186                 _g_overclock_pwm 00B3  
         __size_of_LedMode_Func 00B7                      __end_ofPL2 02D6                      __end_ofPL4 04BD  
                    __end_ofPL6 05B1                      __end_ofPL8 018C             __size_of_Delay_Init 0010  
                    ??_ADC_Init 0000                ??_Battery_Update 0033                _g_slave_alive_ms 0098  
                ?_T1_PWM_inital 0028                      __pbssBANK0 0010                      __pbssBANK1 0090  
                comm_pack_tx@hi 0028                  comm_pack_tx@lo 002A                       ?_Key_Func 0028  
       LedMode_Func@breath_duty 0017           __size_of_Comm_Process 0022                       SAVE_BANK1 000C  
                _kcomm_rx_shift 00B6            Sleep_Func@Sleep_Time 0096                     ?_Sleep_Func 0028  
                  _LedMode_Func 0394                  _kcomm_tx_shift 00BA                     ?_Timer1_Isr 0028  
                    __pmaintext 05B1                         ?___wmul 002F                      __pintentry 0008  
                       ?_inital 0028                    _g_offshow_ms 009C                         _ANSEL10 02BA  
                       _ANSEL11 02BB                         _ANSEL14 02BE                         _ANSEL15 02BF  
                    _g_warn_cnt 00B4                      _g_warn_led 001C                         _T0OSCEN 0265  
                       _INTECON 000E                    _Comm_Process 06C6                       ?_delay_us 002F  
                       _RD_FLAG 0200                      __stringtab 07D0                      ??_Key_Func 0000  
            Timer1_Isr@timer_ms 00A7                    _g_target_pwm 001F                         _SW_Func 06A1  
             ??_warn_flash_proc 0000                      _kcomm_turn 00B8                      _ramInitial 0792  
                   set_fan@gear 002F                    _g_warn_flash 001D                 __size_of___wmul 0019  
              comm_parse_rx@raw 0031                         ___lwdiv 0677      Battery_Update@low_debounce 00B1  
               __size_of_inital 000E                         __ptext1 0792                         __ptext2 0522  
                       __ptext3 07B3                         __ptext4 044B                         __ptext5 0619  
                       __ptext6 07C2                         __ptext7 07DD                         __ptext8 0724  
                       __ptext9 06A1           __size_of_comm_pack_tx 0012           __end_of_show_gear_led 076D  
                     _T1CR_AUXR 004B                 ??_T1_PWM_inital 0000                      ??_delay_us 0000  
                       _set_fan 076D        __size_of_Key_Application 0144             __size_of_Sleep_Func 0069  
                     _DIY_Flag1 0022                       _DIY_Flag2 0021             __size_of_Timer1_Isr 0039  
          end_of_initialization 0016                      delay_us@us 002F                    ??_Delay_Init 0000  
                  _comm_pack_tx 0780           __end_of_comm_parse_rx 0724              __end_of_Delay_Init 07B3  
             __size_of_ADC_Init 000D                 SW_Func@sw_time1 00AB                 SW_Func@sw_time2 00AA  
                   ?_ramInitial 0028          __size_of_fan_ramp_proc 0050                  __end_of___wmul 0757  
                __end_of_inital 07D0                       _Kcomm_ISR 0018                     __end_ofPL10 02DC  
           start_initialization 0016                      _sysinitial 0619                    _kcomm_wakeup 0024  
                  _kcomm_rx_buf 00B9                    _kcomm_tx_buf 00BB               ??_Key_Application 0000  
                 EXIT_BANK_SAVE 000F                   ?_trigger_warn 0028               __size_of_Key_Func 0031  
                  ??_Sleep_Func 0000                    ??_Timer1_Isr 002D                        ??___wmul 0000  
Battery_Update@low_clr_debounce 00B0                     __pdataBANK0 0035                     __pdataBANK1 00C8  
                      ??_inital 0000                      ?_Kcomm_ISR 0028                       ___latbits 0000  
                 __pcstackBANK0 0028                   __pcstackBANK1 00BC              comm_parse_rx@check 002F  
                 ?_adc_read_vdd 002F                 _warn_flash_proc 0649                       _g_k1_prev 001B  
                     _g_k2_prev 001A              __end_of_Sleep_Func 04B4                   _fan_ramp_proc 0522  
            __end_of_Timer1_Isr 05AB               __size_of_delay_us 001A             __size_of_ramInitial 0011  
                ??_trigger_warn 0000                        ?_SW_Func 0028          LedMode_Func@breath_dir 0036  
        LedMode_Func@breath_cnt 0016                ___lwdiv@dividend 00BE              adc_read_vdd@result 0031  
                 _g_current_pwm 0012                        REV_BANK1 05A4                       _g_vdd_adc 0010  
                      ?___lwdiv 00BC                       __pstrings 07D0       fan_ramp_proc@target_fixed 0031  
                   ?_sysinitial 0028                        _ADC_Init 07DD                  ??_adc_read_vdd 0000  
                      ?_set_fan 0028                  ?_fan_ramp_proc 0028        Gear5_Duty_Update@sec_cnt 0090  
               comm_parse_rx@hi 0030                 comm_parse_rx@lo 0032                ___lwdiv@quotient 00C1  
                      Addresses 0000                        _T2LOAD_8 028A                        _T2LOAD_9 028B  
                _g_pwr_delay_ms 009A               interrupt_function 0008              __end_of_c_fan_duty 07DD  
                ___wmul@product 0033                       delay_us@i 0031         __size_of_Battery_Update 00B8  
             Comm_Process@rx_ok 0033                        _TIMER2_8 028C                        _TIMER2_9 028D  
                      _MTP_CLEN 0201         __end_of_warn_flash_proc 0677                     __stringbase 07D5  
             ___wmul@multiplier 002F                     ??_Kcomm_ISR 0000           __end_of_T1_PWM_inital 07C2  
                      _Key_Func 05E8                     _kcomm_cycle 00B7                     Delay_Init@i 0031  
              __size_of_SW_Func 0025                     _kcomm_timer 0014                     _kcomm_state 0027  
        __size_of_show_gear_led 0016             Key_Application@edge 00BD             __size_of_sysinitial 0030  
                  ??_ramInitial 0000                __size_of___lwdiv 002A            __end_of_trigger_warn 07F6  
            __end_of__stringtab 07D6                 ??_fan_ramp_proc 002F                 _Key_Application 018C  
            Key_Func@key1_time1 00AF              Key_Func@key1_time2 00AE              Key_Func@key2_time1 00AD  
            Key_Func@key2_time2 00AC                        _delay_us 0724                 ___lwdiv@divisor 00BC  
               ___lwdiv@counter 00C0                        __ptext10 0394                        __ptext11 05E8  
                      __ptext20 073E                        __ptext12 018C                        __ptext21 0677  
                      __ptext13 0649                        __ptext22 07A3                        __ptext14 0757  
                      __ptext23 06C6                        __ptext15 07EA                        __ptext24 0709  
                      __ptext16 076D                        __ptext25 0572                        __ptext17 02DC  
                      __ptext26 0018                        __ptext18 06E8                        __ptext27 0780  
                      __ptext19 04BD                __size_of_set_fan 0013       Battery_Update@startup_cnt 00C8  
            __end_of_ramInitial 07A3         Gear5_Duty_Update@ms_sub 0092                   __size_of_main 0037  
        __size_of_comm_parse_rx 001B                   ?_LedMode_Func 0028            __end_of_adc_read_vdd 0709  
              ?_warn_flash_proc 0028                   _show_gear_led 0757                   ?_Comm_Process 0028  
             show_gear_led@gear 002F              Key_Application@cur 00BE                        intlevel1 0000  
                 _Kcomm_ISR$634 002B                  _Battery_Update 02DC                  ??_LedMode_Func 0000  
                     stringcode 07D0         __end_of_Key_Application 02D0             trigger_warn@led_num 002F  
                 _comm_parse_rx 0709                  ?_show_gear_led 0028                  ??_Comm_Process 0000  
                  ??_sysinitial 0000                        stringdir 07D0                        stringtab 07D0  
        __end_of_Battery_Update 0394                 _g_battery_empty 001E                  _sysinitial$240 00BC  
                _sysinitial$241 00BE                  _sysinitial$242 00C0                  _sysinitial$243 00C2  
                _sysinitial$244 00C4                  _sysinitial$245 00C6  
